	.file	"a.cpp"
	.text
	.section	.text._ZnwmPv,"axG",@progbits,_ZnwmPv,comdat
	.weak	_ZnwmPv
	.type	_ZnwmPv, @function
_ZnwmPv:
.LFB993:
	.cfi_startproc
	endbr64
	pushq	%rbp
	.cfi_def_cfa_offset 16
	.cfi_offset 6, -16
	movq	%rsp, %rbp
	.cfi_def_cfa_register 6
	movq	%rdi, -8(%rbp)
	movq	%rsi, -16(%rbp)
	movq	-16(%rbp), %rax
	popq	%rbp
	.cfi_def_cfa 7, 8
	ret
	.cfi_endproc
.LFE993:
	.size	_ZnwmPv, .-_ZnwmPv
	.section	.text._ZdlPvS_,"axG",@progbits,_ZdlPvS_,comdat
	.weak	_ZdlPvS_
	.type	_ZdlPvS_, @function
_ZdlPvS_:
.LFB995:
	.cfi_startproc
	endbr64
	pushq	%rbp
	.cfi_def_cfa_offset 16
	.cfi_offset 6, -16
	movq	%rsp, %rbp
	.cfi_def_cfa_register 6
	movq	%rdi, -8(%rbp)
	movq	%rsi, -16(%rbp)
	nop
	popq	%rbp
	.cfi_def_cfa 7, 8
	ret
	.cfi_endproc
.LFE995:
	.size	_ZdlPvS_, .-_ZdlPvS_
	.section	.text._ZNSt7__cxx119to_stringEi,"axG",@progbits,_ZNSt7__cxx119to_stringEi,comdat
	.weak	_ZNSt7__cxx119to_stringEi
	.type	_ZNSt7__cxx119to_stringEi, @function
_ZNSt7__cxx119to_stringEi:
.LFB1734:
	.cfi_startproc
	.cfi_personality 0x9b,DW.ref.__gxx_personality_v0
	.cfi_lsda 0x1b,.LLSDA1734
	endbr64
	pushq	%rbp
	.cfi_def_cfa_offset 16
	.cfi_offset 6, -16
	movq	%rsp, %rbp
	.cfi_def_cfa_register 6
	pushq	%rbx
	subq	$56, %rsp
	.cfi_offset 3, -24
	movq	%rdi, -56(%rbp)
	movl	%esi, -60(%rbp)
	movq	%fs:40, %rax
	movq	%rax, -24(%rbp)
	xorl	%eax, %eax
	movl	-60(%rbp), %eax
	shrl	$31, %eax
	movb	%al, -33(%rbp)
	cmpb	$0, -33(%rbp)
	je	.L5
	movl	-60(%rbp), %eax
	negl	%eax
	jmp	.L6
.L5:
	movl	-60(%rbp), %eax
.L6:
	movl	%eax, -32(%rbp)
	movl	-32(%rbp), %eax
	movl	$10, %esi
	movl	%eax, %edi
	call	_ZNSt8__detail14__to_chars_lenIjEEjT_i
	movl	%eax, -28(%rbp)
	leaq	-34(%rbp), %rax
	movq	%rax, %rdi
	call	_ZNSaIcEC1Ev@PLT
	movzbl	-33(%rbp), %edx
	movl	-28(%rbp), %eax
	addl	%edx, %eax
	movl	%eax, %esi
	leaq	-34(%rbp), %rdx
	movq	-56(%rbp), %rax
	movq	%rdx, %rcx
	movl	$45, %edx
	movq	%rax, %rdi
.LEHB0:
	call	_ZNSt7__cxx1112basic_stringIcSt11char_traitsIcESaIcEEC1IS3_EEmcRKS3_
.LEHE0:
	leaq	-34(%rbp), %rax
	movq	%rax, %rdi
	call	_ZNSaIcED1Ev@PLT
	movzbl	-33(%rbp), %edx
	movq	-56(%rbp), %rax
	movq	%rdx, %rsi
	movq	%rax, %rdi
.LEHB1:
	call	_ZNSt7__cxx1112basic_stringIcSt11char_traitsIcESaIcEEixEm@PLT
.LEHE1:
	movq	%rax, %rcx
	movl	-32(%rbp), %edx
	movl	-28(%rbp), %eax
	movl	%eax, %esi
	movq	%rcx, %rdi
	call	_ZNSt8__detail18__to_chars_10_implIjEEvPcjT_
	nop
	movq	-24(%rbp), %rax
	subq	%fs:40, %rax
	je	.L10
	jmp	.L13
.L11:
	endbr64
	movq	%rax, %rbx
	leaq	-34(%rbp), %rax
	movq	%rax, %rdi
	call	_ZNSaIcED1Ev@PLT
	movq	%rbx, %rax
	movq	%rax, %rdi
.LEHB2:
	call	_Unwind_Resume@PLT
.L12:
	endbr64
	movq	%rax, %rbx
	movq	-56(%rbp), %rax
	movq	%rax, %rdi
	call	_ZNSt7__cxx1112basic_stringIcSt11char_traitsIcESaIcEED1Ev@PLT
	movq	%rbx, %rax
	movq	%rax, %rdi
	call	_Unwind_Resume@PLT
.LEHE2:
.L13:
	call	__stack_chk_fail@PLT
.L10:
	movq	-56(%rbp), %rax
	movq	-8(%rbp), %rbx
	leave
	.cfi_def_cfa 7, 8
	ret
	.cfi_endproc
.LFE1734:
	.globl	__gxx_personality_v0
	.section	.gcc_except_table._ZNSt7__cxx119to_stringEi,"aG",@progbits,_ZNSt7__cxx119to_stringEi,comdat
.LLSDA1734:
	.byte	0xff
	.byte	0xff
	.byte	0x1
	.uleb128 .LLSDACSE1734-.LLSDACSB1734
.LLSDACSB1734:
	.uleb128 .LEHB0-.LFB1734
	.uleb128 .LEHE0-.LEHB0
	.uleb128 .L11-.LFB1734
	.uleb128 0
	.uleb128 .LEHB1-.LFB1734
	.uleb128 .LEHE1-.LEHB1
	.uleb128 .L12-.LFB1734
	.uleb128 0
	.uleb128 .LEHB2-.LFB1734
	.uleb128 .LEHE2-.LEHB2
	.uleb128 0
	.uleb128 0
.LLSDACSE1734:
	.section	.text._ZNSt7__cxx119to_stringEi,"axG",@progbits,_ZNSt7__cxx119to_stringEi,comdat
	.size	_ZNSt7__cxx119to_stringEi, .-_ZNSt7__cxx119to_stringEi
	.section	.text._ZNSt8__detail14__to_chars_lenIjEEjT_i,"axG",@progbits,_ZNSt8__detail14__to_chars_lenIjEEjT_i,comdat
	.weak	_ZNSt8__detail14__to_chars_lenIjEEjT_i
	.type	_ZNSt8__detail14__to_chars_lenIjEEjT_i, @function
_ZNSt8__detail14__to_chars_lenIjEEjT_i:
.LFB1736:
	.cfi_startproc
	endbr64
	pushq	%rbp
	.cfi_def_cfa_offset 16
	.cfi_offset 6, -16
	movq	%rsp, %rbp
	.cfi_def_cfa_register 6
	movl	%edi, -36(%rbp)
	movl	%esi, -40(%rbp)
	movl	$1, -20(%rbp)
	movl	-40(%rbp), %eax
	imull	%eax, %eax
	movl	%eax, -16(%rbp)
	movl	-40(%rbp), %eax
	movl	-16(%rbp), %edx
	imull	%edx, %eax
	movl	%eax, -12(%rbp)
	movl	-40(%rbp), %eax
	imull	-12(%rbp), %eax
	movl	%eax, %eax
	movq	%rax, -8(%rbp)
.L20:
	movl	-40(%rbp), %eax
	cmpl	%eax, -36(%rbp)
	jnb	.L15
	movl	-20(%rbp), %eax
	jmp	.L16
.L15:
	movl	-36(%rbp), %eax
	cmpl	-16(%rbp), %eax
	jnb	.L17
	movl	-20(%rbp), %eax
	addl	$1, %eax
	jmp	.L16
.L17:
	movl	-36(%rbp), %eax
	cmpl	-12(%rbp), %eax
	jnb	.L18
	movl	-20(%rbp), %eax
	addl	$2, %eax
	jmp	.L16
.L18:
	movl	-36(%rbp), %eax
	cmpq	%rax, -8(%rbp)
	jbe	.L19
	movl	-20(%rbp), %eax
	addl	$3, %eax
	jmp	.L16
.L19:
	movl	-36(%rbp), %eax
	movl	$0, %edx
	divq	-8(%rbp)
	movl	%eax, -36(%rbp)
	addl	$4, -20(%rbp)
	jmp	.L20
.L16:
	popq	%rbp
	.cfi_def_cfa 7, 8
	ret
	.cfi_endproc
.LFE1736:
	.size	_ZNSt8__detail14__to_chars_lenIjEEjT_i, .-_ZNSt8__detail14__to_chars_lenIjEEjT_i
	.local	_ZStL8__ioinit
	.comm	_ZStL8__ioinit,1,1
	.section	.text._ZSt3minImERKT_S2_S2_,"axG",@progbits,_ZSt3minImERKT_S2_S2_,comdat
	.weak	_ZSt3minImERKT_S2_S2_
	.type	_ZSt3minImERKT_S2_S2_, @function
_ZSt3minImERKT_S2_S2_:
.LFB2773:
	.cfi_startproc
	endbr64
	pushq	%rbp
	.cfi_def_cfa_offset 16
	.cfi_offset 6, -16
	movq	%rsp, %rbp
	.cfi_def_cfa_register 6
	movq	%rdi, -8(%rbp)
	movq	%rsi, -16(%rbp)
	movq	-16(%rbp), %rax
	movq	(%rax), %rdx
	movq	-8(%rbp), %rax
	movq	(%rax), %rax
	cmpq	%rax, %rdx
	jnb	.L22
	movq	-16(%rbp), %rax
	jmp	.L23
.L22:
	movq	-8(%rbp), %rax
.L23:
	popq	%rbp
	.cfi_def_cfa 7, 8
	ret
	.cfi_endproc
.LFE2773:
	.size	_ZSt3minImERKT_S2_S2_, .-_ZSt3minImERKT_S2_S2_
	.weak	_ZN6ranges6invokeE
	.section	.rodata._ZN6ranges6invokeE,"aG",@progbits,_ZN6ranges6invokeE,comdat
	.type	_ZN6ranges6invokeE, @gnu_unique_object
	.size	_ZN6ranges6invokeE, 1
_ZN6ranges6invokeE:
	.zero	1
	.section	.rodata
	.align 4
	.type	_ZN9__gnu_cxxL21__default_lock_policyE, @object
	.size	_ZN9__gnu_cxxL21__default_lock_policyE, 4
_ZN9__gnu_cxxL21__default_lock_policyE:
	.long	2
	.type	_ZN6__pstl9execution2v1L3seqE, @object
	.size	_ZN6__pstl9execution2v1L3seqE, 1
_ZN6__pstl9execution2v1L3seqE:
	.zero	1
	.type	_ZN6__pstl9execution2v1L3parE, @object
	.size	_ZN6__pstl9execution2v1L3parE, 1
_ZN6__pstl9execution2v1L3parE:
	.zero	1
	.type	_ZN6__pstl9execution2v1L9par_unseqE, @object
	.size	_ZN6__pstl9execution2v1L9par_unseqE, 1
_ZN6__pstl9execution2v1L9par_unseqE:
	.zero	1
	.type	_ZN6__pstl9execution2v1L5unseqE, @object
	.size	_ZN6__pstl9execution2v1L5unseqE, 1
_ZN6__pstl9execution2v1L5unseqE:
	.zero	1
	.weak	_ZN6ranges1_5beginE
	.section	.rodata._ZN6ranges1_5beginE,"aG",@progbits,_ZN6ranges1_5beginE,comdat
	.type	_ZN6ranges1_5beginE, @gnu_unique_object
	.size	_ZN6ranges1_5beginE, 1
_ZN6ranges1_5beginE:
	.zero	1
	.weak	_ZN6ranges1_3endE
	.section	.rodata._ZN6ranges1_3endE,"aG",@progbits,_ZN6ranges1_3endE,comdat
	.type	_ZN6ranges1_3endE, @gnu_unique_object
	.size	_ZN6ranges1_3endE, 1
_ZN6ranges1_3endE:
	.zero	1
	.weak	_ZN6ranges12static_constINS_7actions15make_action_fn_EE5valueE
	.section	.rodata._ZN6ranges12static_constINS_7actions15make_action_fn_EE5valueE,"aG",@progbits,_ZN6ranges12static_constINS_7actions15make_action_fn_EE5valueE,comdat
	.type	_ZN6ranges12static_constINS_7actions15make_action_fn_EE5valueE, @gnu_unique_object
	.size	_ZN6ranges12static_constINS_7actions15make_action_fn_EE5valueE, 1
_ZN6ranges12static_constINS_7actions15make_action_fn_EE5valueE:
	.zero	1
	.section	.data.rel.ro.local,"aw"
	.align 8
	.type	_ZN6ranges7actions12_GLOBAL__N_111make_actionE, @object
	.size	_ZN6ranges7actions12_GLOBAL__N_111make_actionE, 8
_ZN6ranges7actions12_GLOBAL__N_111make_actionE:
	.quad	_ZN6ranges12static_constINS_7actions15make_action_fn_EE5valueE
	.weak	_ZN6ranges12static_constINS_12_sanitize_fnEE5valueE
	.section	.rodata._ZN6ranges12static_constINS_12_sanitize_fnEE5valueE,"aG",@progbits,_ZN6ranges12static_constINS_12_sanitize_fnEE5valueE,comdat
	.type	_ZN6ranges12static_constINS_12_sanitize_fnEE5valueE, @gnu_unique_object
	.size	_ZN6ranges12static_constINS_12_sanitize_fnEE5valueE, 1
_ZN6ranges12static_constINS_12_sanitize_fnEE5valueE:
	.zero	1
	.section	.data.rel.ro.local
	.align 8
	.type	_ZN6ranges12_GLOBAL__N_18sanitizeE, @object
	.size	_ZN6ranges12_GLOBAL__N_18sanitizeE, 8
_ZN6ranges12_GLOBAL__N_18sanitizeE:
	.quad	_ZN6ranges12static_constINS_12_sanitize_fnEE5valueE
	.weak	_ZN6ranges9bind_backE
	.section	.rodata._ZN6ranges9bind_backE,"aG",@progbits,_ZN6ranges9bind_backE,comdat
	.type	_ZN6ranges9bind_backE, @gnu_unique_object
	.size	_ZN6ranges9bind_backE, 1
_ZN6ranges9bind_backE:
	.zero	1
	.weak	_ZN6ranges5views3refE
	.section	.rodata._ZN6ranges5views3refE,"aG",@progbits,_ZN6ranges5views3refE,comdat
	.type	_ZN6ranges5views3refE, @gnu_unique_object
	.size	_ZN6ranges5views3refE, 1
_ZN6ranges5views3refE:
	.zero	1
	.weak	_ZN6ranges17make_view_closureE
	.section	.rodata._ZN6ranges17make_view_closureE,"aG",@progbits,_ZN6ranges17make_view_closureE,comdat
	.type	_ZN6ranges17make_view_closureE, @gnu_unique_object
	.size	_ZN6ranges17make_view_closureE, 1
_ZN6ranges17make_view_closureE:
	.zero	1
	.weak	_ZN6ranges12static_constINS_5views13make_view_fn_EE5valueE
	.section	.rodata._ZN6ranges12static_constINS_5views13make_view_fn_EE5valueE,"aG",@progbits,_ZN6ranges12static_constINS_5views13make_view_fn_EE5valueE,comdat
	.type	_ZN6ranges12static_constINS_5views13make_view_fn_EE5valueE, @gnu_unique_object
	.size	_ZN6ranges12static_constINS_5views13make_view_fn_EE5valueE, 1
_ZN6ranges12static_constINS_5views13make_view_fn_EE5valueE:
	.zero	1
	.section	.data.rel.ro.local
	.align 8
	.type	_ZN6ranges5views12_GLOBAL__N_19make_viewE, @object
	.size	_ZN6ranges5views12_GLOBAL__N_19make_viewE, 8
_ZN6ranges5views12_GLOBAL__N_19make_viewE:
	.quad	_ZN6ranges12static_constINS_5views13make_view_fn_EE5valueE
	.weak	_ZN6ranges5views3allE
	.section	.rodata._ZN6ranges5views3allE,"aG",@progbits,_ZN6ranges5views3allE,comdat
	.type	_ZN6ranges5views3allE, @gnu_unique_object
	.size	_ZN6ranges5views3allE, 1
_ZN6ranges5views3allE:
	.zero	1
	.weak	_ZN6ranges8indirectE
	.section	.rodata._ZN6ranges8indirectE,"aG",@progbits,_ZN6ranges8indirectE,comdat
	.type	_ZN6ranges8indirectE, @gnu_unique_object
	.size	_ZN6ranges8indirectE, 1
_ZN6ranges8indirectE:
	.zero	1
	.weak	_ZN6ranges5views9transformE
	.section	.rodata._ZN6ranges5views9transformE,"aG",@progbits,_ZN6ranges5views9transformE,comdat
	.type	_ZN6ranges5views9transformE, @gnu_unique_object
	.size	_ZN6ranges5views9transformE, 1
_ZN6ranges5views9transformE:
	.zero	1
	.weak	_ZN6ranges5views6commonE
	.section	.rodata._ZN6ranges5views6commonE,"aG",@progbits,_ZN6ranges5views6commonE,comdat
	.type	_ZN6ranges5views6commonE, @gnu_unique_object
	.size	_ZN6ranges5views6commonE, 1
_ZN6ranges5views6commonE:
	.zero	1
	.section	.data.rel.ro.local
	.align 8
	.type	_ZN6ranges5views12_GLOBAL__N_17boundedE, @object
	.size	_ZN6ranges5views12_GLOBAL__N_17boundedE, 8
_ZN6ranges5views12_GLOBAL__N_17boundedE:
	.quad	_ZN6ranges5views6commonE
	.section	.rodata
	.align 8
	.type	_ZN6rangesL14dynamic_extentE, @object
	.size	_ZN6rangesL14dynamic_extentE, 8
_ZN6rangesL14dynamic_extentE:
	.quad	-1
	.align 4
	.type	_ZNSt15regex_constantsL13error_collateE, @object
	.size	_ZNSt15regex_constantsL13error_collateE, 4
_ZNSt15regex_constantsL13error_collateE:
	.zero	4
	.align 4
	.type	_ZNSt15regex_constantsL11error_ctypeE, @object
	.size	_ZNSt15regex_constantsL11error_ctypeE, 4
_ZNSt15regex_constantsL11error_ctypeE:
	.long	1
	.align 4
	.type	_ZNSt15regex_constantsL12error_escapeE, @object
	.size	_ZNSt15regex_constantsL12error_escapeE, 4
_ZNSt15regex_constantsL12error_escapeE:
	.long	2
	.align 4
	.type	_ZNSt15regex_constantsL13error_backrefE, @object
	.size	_ZNSt15regex_constantsL13error_backrefE, 4
_ZNSt15regex_constantsL13error_backrefE:
	.long	3
	.align 4
	.type	_ZNSt15regex_constantsL11error_brackE, @object
	.size	_ZNSt15regex_constantsL11error_brackE, 4
_ZNSt15regex_constantsL11error_brackE:
	.long	4
	.align 4
	.type	_ZNSt15regex_constantsL11error_parenE, @object
	.size	_ZNSt15regex_constantsL11error_parenE, 4
_ZNSt15regex_constantsL11error_parenE:
	.long	5
	.align 4
	.type	_ZNSt15regex_constantsL11error_braceE, @object
	.size	_ZNSt15regex_constantsL11error_braceE, 4
_ZNSt15regex_constantsL11error_braceE:
	.long	6
	.align 4
	.type	_ZNSt15regex_constantsL14error_badbraceE, @object
	.size	_ZNSt15regex_constantsL14error_badbraceE, 4
_ZNSt15regex_constantsL14error_badbraceE:
	.long	7
	.align 4
	.type	_ZNSt15regex_constantsL11error_rangeE, @object
	.size	_ZNSt15regex_constantsL11error_rangeE, 4
_ZNSt15regex_constantsL11error_rangeE:
	.long	8
	.align 4
	.type	_ZNSt15regex_constantsL11error_spaceE, @object
	.size	_ZNSt15regex_constantsL11error_spaceE, 4
_ZNSt15regex_constantsL11error_spaceE:
	.long	9
	.align 4
	.type	_ZNSt15regex_constantsL15error_badrepeatE, @object
	.size	_ZNSt15regex_constantsL15error_badrepeatE, 4
_ZNSt15regex_constantsL15error_badrepeatE:
	.long	10
	.align 4
	.type	_ZNSt15regex_constantsL16error_complexityE, @object
	.size	_ZNSt15regex_constantsL16error_complexityE, 4
_ZNSt15regex_constantsL16error_complexityE:
	.long	11
	.align 4
	.type	_ZNSt15regex_constantsL11error_stackE, @object
	.size	_ZNSt15regex_constantsL11error_stackE, 4
_ZNSt15regex_constantsL11error_stackE:
	.long	12
	.align 8
	.type	_ZNSt8__detailL19_S_invalid_state_idE, @object
	.size	_ZNSt8__detailL19_S_invalid_state_idE, 8
_ZNSt8__detailL19_S_invalid_state_idE:
	.quad	-1
	.data
	.align 4
	.type	_ZZZ4mainENKUlNSt7__cxx1112basic_stringIcSt11char_traitsIcESaIcEEEE_clES4_E1i, @object
	.size	_ZZZ4mainENKUlNSt7__cxx1112basic_stringIcSt11char_traitsIcESaIcEEEE_clES4_E1i, 4
_ZZZ4mainENKUlNSt7__cxx1112basic_stringIcSt11char_traitsIcESaIcEEEE_clES4_E1i:
	.long	1
	.text
	.align 2
	.type	_ZZ4mainENKUlNSt7__cxx1112basic_stringIcSt11char_traitsIcESaIcEEEE_clES4_, @function
_ZZ4mainENKUlNSt7__cxx1112basic_stringIcSt11char_traitsIcESaIcEEEE_clES4_:
.LFB9255:
	.cfi_startproc
	.cfi_personality 0x9b,DW.ref.__gxx_personality_v0
	.cfi_lsda 0x1b,.LLSDA9255
	pushq	%rbp
	.cfi_def_cfa_offset 16
	.cfi_offset 6, -16
	movq	%rsp, %rbp
	.cfi_def_cfa_register 6
	pushq	%rbx
	subq	$88, %rsp
	.cfi_offset 3, -24
	movq	%rdi, -72(%rbp)
	movq	%rsi, -80(%rbp)
	movq	%rdx, -88(%rbp)
	movq	%fs:40, %rax
	movq	%rax, -24(%rbp)
	xorl	%eax, %eax
	movl	_ZZZ4mainENKUlNSt7__cxx1112basic_stringIcSt11char_traitsIcESaIcEEEE_clES4_E1i(%rip), %eax
	leal	1(%rax), %edx
	movl	%edx, _ZZZ4mainENKUlNSt7__cxx1112basic_stringIcSt11char_traitsIcESaIcEEEE_clES4_E1i(%rip)
	leaq	-64(%rbp), %rdx
	movl	%eax, %esi
	movq	%rdx, %rdi
.LEHB3:
	call	_ZNSt7__cxx119to_stringEi
.LEHE3:
	leaq	-64(%rbp), %rdx
	movq	-88(%rbp), %rax
	movq	%rdx, %rsi
	movq	%rax, %rdi
.LEHB4:
	call	_ZNSt7__cxx1112basic_stringIcSt11char_traitsIcESaIcEEpLERKS4_@PLT
.LEHE4:
	leaq	-64(%rbp), %rax
	movq	%rax, %rdi
	call	_ZNSt7__cxx1112basic_stringIcSt11char_traitsIcESaIcEED1Ev@PLT
	movq	-88(%rbp), %rdx
	movq	-72(%rbp), %rax
	movq	%rdx, %rsi
	movq	%rax, %rdi
	call	_ZNSt7__cxx1112basic_stringIcSt11char_traitsIcESaIcEEC1EOS4_@PLT
	movq	-24(%rbp), %rax
	subq	%fs:40, %rax
	je	.L27
	jmp	.L29
.L28:
	endbr64
	movq	%rax, %rbx
	leaq	-64(%rbp), %rax
	movq	%rax, %rdi
	call	_ZNSt7__cxx1112basic_stringIcSt11char_traitsIcESaIcEED1Ev@PLT
	movq	%rbx, %rax
	movq	%rax, %rdi
.LEHB5:
	call	_Unwind_Resume@PLT
.LEHE5:
.L29:
	call	__stack_chk_fail@PLT
.L27:
	movq	-72(%rbp), %rax
	movq	-8(%rbp), %rbx
	leave
	.cfi_def_cfa 7, 8
	ret
	.cfi_endproc
.LFE9255:
	.section	.gcc_except_table,"a",@progbits
.LLSDA9255:
	.byte	0xff
	.byte	0xff
	.byte	0x1
	.uleb128 .LLSDACSE9255-.LLSDACSB9255
.LLSDACSB9255:
	.uleb128 .LEHB3-.LFB9255
	.uleb128 .LEHE3-.LEHB3
	.uleb128 0
	.uleb128 0
	.uleb128 .LEHB4-.LFB9255
	.uleb128 .LEHE4-.LEHB4
	.uleb128 .L28-.LFB9255
	.uleb128 0
	.uleb128 .LEHB5-.LFB9255
	.uleb128 .LEHE5-.LEHB5
	.uleb128 0
	.uleb128 0
.LLSDACSE9255:
	.text
	.size	_ZZ4mainENKUlNSt7__cxx1112basic_stringIcSt11char_traitsIcESaIcEEEE_clES4_, .-_ZZ4mainENKUlNSt7__cxx1112basic_stringIcSt11char_traitsIcESaIcEEEE_clES4_
	.align 2
	.type	_ZNK6ranges5views12transform_fnclIZ4mainEUlNSt7__cxx1112basic_stringIcSt11char_traitsIcESaIcEEEE_EEDaT_, @function
_ZNK6ranges5views12transform_fnclIZ4mainEUlNSt7__cxx1112basic_stringIcSt11char_traitsIcESaIcEEEE_EEDaT_:
.LFB9258:
	.cfi_startproc
	pushq	%rbp
	.cfi_def_cfa_offset 16
	.cfi_offset 6, -16
	movq	%rsp, %rbp
	.cfi_def_cfa_register 6
	pushq	%rbx
	subq	$40, %rsp
	.cfi_offset 3, -24
	movq	%rdi, -40(%rbp)
	movq	%fs:40, %rax
	movq	%rax, -24(%rbp)
	xorl	%eax, %eax
	leaq	-41(%rbp), %rax
	movq	%rax, %rdi
	call	_ZSt4moveIRZ4mainEUlNSt7__cxx1112basic_stringIcSt11char_traitsIcESaIcEEEE_EONSt16remove_referenceIT_E4typeEOS9_
	movq	%rax, %rdx
	leaq	-25(%rbp), %rax
	movq	%rax, %rsi
	leaq	_ZN6ranges9bind_backE(%rip), %rax
	movq	%rax, %rdi
	call	_ZNK6ranges12bind_back_fnclINS_5views17transform_base_fnEZ4mainEUlNSt7__cxx1112basic_stringIcSt11char_traitsIcESaIcEEEE_JEEENS_6detail13bind_back_fn_INSt5decayIT_E4typeEJNSD_IT0_E4typeEDpNSD_IT1_E4typeEEEEOSE_OSH_DpOSK_
	leaq	_ZN6ranges17make_view_closureE(%rip), %rax
	movq	%rax, %rdi
	call	_ZNK6ranges20make_view_closure_fnclINS_6detail13bind_back_fn_INS_5views17transform_base_fnEJZ4mainEUlNSt7__cxx1112basic_stringIcSt11char_traitsIcESaIcEEEE_EEEEENS4_12view_closureIT_EESF_
	nop
	movq	-24(%rbp), %rax
	subq	%fs:40, %rax
	je	.L32
	call	__stack_chk_fail@PLT
.L32:
	movl	%ebx, %eax
	movq	-8(%rbp), %rbx
	leave
	.cfi_def_cfa 7, 8
	ret
	.cfi_endproc
.LFE9258:
	.size	_ZNK6ranges5views12transform_fnclIZ4mainEUlNSt7__cxx1112basic_stringIcSt11char_traitsIcESaIcEEEE_EEDaT_, .-_ZNK6ranges5views12transform_fnclIZ4mainEUlNSt7__cxx1112basic_stringIcSt11char_traitsIcESaIcEEEE_EEDaT_
	.section	.rodata
	.type	_ZN6ranges22invocable_view_closureINS_6detail13bind_back_fn_INS_5views17transform_base_fnEJZ4mainEUlNSt7__cxx1112basic_stringIcSt11char_traitsIcESaIcEEEE_EEERSt6vectorISA_SaISA_EEEE, @object
	.size	_ZN6ranges22invocable_view_closureINS_6detail13bind_back_fn_INS_5views17transform_base_fnEJZ4mainEUlNSt7__cxx1112basic_stringIcSt11char_traitsIcESaIcEEEE_EEERSt6vectorISA_SaISA_EEEE, 1
_ZN6ranges22invocable_view_closureINS_6detail13bind_back_fn_INS_5views17transform_base_fnEJZ4mainEUlNSt7__cxx1112basic_stringIcSt11char_traitsIcESaIcEEEE_EEERSt6vectorISA_SaISA_EEEE:
	.byte	1
	.type	_ZN6ranges9invocableINS_6detail13bind_back_fn_INS_5views17transform_base_fnEJZ4mainEUlNSt7__cxx1112basic_stringIcSt11char_traitsIcESaIcEEEE_EEEJRSt6vectorISA_SaISA_EEEEE, @object
	.size	_ZN6ranges9invocableINS_6detail13bind_back_fn_INS_5views17transform_base_fnEJZ4mainEUlNSt7__cxx1112basic_stringIcSt11char_traitsIcESaIcEEEE_EEEJRSt6vectorISA_SaISA_EEEEE, 1
_ZN6ranges9invocableINS_6detail13bind_back_fn_INS_5views17transform_base_fnEJZ4mainEUlNSt7__cxx1112basic_stringIcSt11char_traitsIcESaIcEEEE_EEEJRSt6vectorISA_SaISA_EEEEE:
	.byte	1
	.type	_ZN6ranges5views19transformable_rangeIRSt6vectorINSt7__cxx1112basic_stringIcSt11char_traitsIcESaIcEEESaIS8_EEZ4mainEUlS8_E_EE, @object
	.size	_ZN6ranges5views19transformable_rangeIRSt6vectorINSt7__cxx1112basic_stringIcSt11char_traitsIcESaIcEEESaIS8_EEZ4mainEUlS8_E_EE, 1
_ZN6ranges5views19transformable_rangeIRSt6vectorINSt7__cxx1112basic_stringIcSt11char_traitsIcESaIcEEESaIS8_EEZ4mainEUlS8_E_EE:
	.byte	1
	.type	_ZN8concepts4defs18copy_constructibleIZ4mainEUlNSt7__cxx1112basic_stringIcSt11char_traitsIcESaIcEEEE_EE, @object
	.size	_ZN8concepts4defs18copy_constructibleIZ4mainEUlNSt7__cxx1112basic_stringIcSt11char_traitsIcESaIcEEEE_EE, 1
_ZN8concepts4defs18copy_constructibleIZ4mainEUlNSt7__cxx1112basic_stringIcSt11char_traitsIcESaIcEEEE_EE:
	.byte	1
	.type	_ZN8concepts4defs18move_constructibleIZ4mainEUlNSt7__cxx1112basic_stringIcSt11char_traitsIcESaIcEEEE_EE, @object
	.size	_ZN8concepts4defs18move_constructibleIZ4mainEUlNSt7__cxx1112basic_stringIcSt11char_traitsIcESaIcEEEE_EE, 1
_ZN8concepts4defs18move_constructibleIZ4mainEUlNSt7__cxx1112basic_stringIcSt11char_traitsIcESaIcEEEE_EE:
	.byte	1
	.type	_ZN8concepts4defs18constructible_fromIZ4mainEUlNSt7__cxx1112basic_stringIcSt11char_traitsIcESaIcEEEE_JS8_EEE, @object
	.size	_ZN8concepts4defs18constructible_fromIZ4mainEUlNSt7__cxx1112basic_stringIcSt11char_traitsIcESaIcEEEE_JS8_EEE, 1
_ZN8concepts4defs18constructible_fromIZ4mainEUlNSt7__cxx1112basic_stringIcSt11char_traitsIcESaIcEEEE_JS8_EEE:
	.byte	1
	.type	_ZN8concepts4defs12destructibleIZ4mainEUlNSt7__cxx1112basic_stringIcSt11char_traitsIcESaIcEEEE_EE, @object
	.size	_ZN8concepts4defs12destructibleIZ4mainEUlNSt7__cxx1112basic_stringIcSt11char_traitsIcESaIcEEEE_EE, 1
_ZN8concepts4defs12destructibleIZ4mainEUlNSt7__cxx1112basic_stringIcSt11char_traitsIcESaIcEEEE_EE:
	.byte	1
	.type	_ZN8concepts4defs14convertible_toIZ4mainEUlNSt7__cxx1112basic_stringIcSt11char_traitsIcESaIcEEEE_S8_EE, @object
	.size	_ZN8concepts4defs14convertible_toIZ4mainEUlNSt7__cxx1112basic_stringIcSt11char_traitsIcESaIcEEEE_S8_EE, 1
_ZN8concepts4defs14convertible_toIZ4mainEUlNSt7__cxx1112basic_stringIcSt11char_traitsIcESaIcEEEE_S8_EE:
	.byte	1
	.type	_ZN8concepts4defs25implicitly_convertible_toIZ4mainEUlNSt7__cxx1112basic_stringIcSt11char_traitsIcESaIcEEEE_S8_EE, @object
	.size	_ZN8concepts4defs25implicitly_convertible_toIZ4mainEUlNSt7__cxx1112basic_stringIcSt11char_traitsIcESaIcEEEE_S8_EE, 1
_ZN8concepts4defs25implicitly_convertible_toIZ4mainEUlNSt7__cxx1112basic_stringIcSt11char_traitsIcESaIcEEEE_S8_EE:
	.byte	1
	.type	_ZN8concepts4defs25explicitly_convertible_toIZ4mainEUlNSt7__cxx1112basic_stringIcSt11char_traitsIcESaIcEEEE_S8_EE, @object
	.size	_ZN8concepts4defs25explicitly_convertible_toIZ4mainEUlNSt7__cxx1112basic_stringIcSt11char_traitsIcESaIcEEEE_S8_EE, 1
_ZN8concepts4defs25explicitly_convertible_toIZ4mainEUlNSt7__cxx1112basic_stringIcSt11char_traitsIcESaIcEEEE_S8_EE:
	.byte	1
	.type	_ZN8concepts4defs18constructible_fromIZ4mainEUlNSt7__cxx1112basic_stringIcSt11char_traitsIcESaIcEEEE_JRS8_EEE, @object
	.size	_ZN8concepts4defs18constructible_fromIZ4mainEUlNSt7__cxx1112basic_stringIcSt11char_traitsIcESaIcEEEE_JRS8_EEE, 1
_ZN8concepts4defs18constructible_fromIZ4mainEUlNSt7__cxx1112basic_stringIcSt11char_traitsIcESaIcEEEE_JRS8_EEE:
	.byte	1
	.type	_ZN8concepts4defs18constructible_fromIZ4mainEUlNSt7__cxx1112basic_stringIcSt11char_traitsIcESaIcEEEE_JRKS8_EEE, @object
	.size	_ZN8concepts4defs18constructible_fromIZ4mainEUlNSt7__cxx1112basic_stringIcSt11char_traitsIcESaIcEEEE_JRKS8_EEE, 1
_ZN8concepts4defs18constructible_fromIZ4mainEUlNSt7__cxx1112basic_stringIcSt11char_traitsIcESaIcEEEE_JRKS8_EEE:
	.byte	1
	.type	_ZN8concepts4defs18constructible_fromIZ4mainEUlNSt7__cxx1112basic_stringIcSt11char_traitsIcESaIcEEEE_JKS8_EEE, @object
	.size	_ZN8concepts4defs18constructible_fromIZ4mainEUlNSt7__cxx1112basic_stringIcSt11char_traitsIcESaIcEEEE_JKS8_EEE, 1
_ZN8concepts4defs18constructible_fromIZ4mainEUlNSt7__cxx1112basic_stringIcSt11char_traitsIcESaIcEEEE_JKS8_EEE:
	.byte	1
	.type	_ZN8concepts4defs14convertible_toIRZ4mainEUlNSt7__cxx1112basic_stringIcSt11char_traitsIcESaIcEEEE_S8_EE, @object
	.size	_ZN8concepts4defs14convertible_toIRZ4mainEUlNSt7__cxx1112basic_stringIcSt11char_traitsIcESaIcEEEE_S8_EE, 1
_ZN8concepts4defs14convertible_toIRZ4mainEUlNSt7__cxx1112basic_stringIcSt11char_traitsIcESaIcEEEE_S8_EE:
	.byte	1
	.type	_ZN8concepts4defs25implicitly_convertible_toIRZ4mainEUlNSt7__cxx1112basic_stringIcSt11char_traitsIcESaIcEEEE_S8_EE, @object
	.size	_ZN8concepts4defs25implicitly_convertible_toIRZ4mainEUlNSt7__cxx1112basic_stringIcSt11char_traitsIcESaIcEEEE_S8_EE, 1
_ZN8concepts4defs25implicitly_convertible_toIRZ4mainEUlNSt7__cxx1112basic_stringIcSt11char_traitsIcESaIcEEEE_S8_EE:
	.byte	1
	.type	_ZN8concepts4defs25explicitly_convertible_toIRZ4mainEUlNSt7__cxx1112basic_stringIcSt11char_traitsIcESaIcEEEE_S8_EE, @object
	.size	_ZN8concepts4defs25explicitly_convertible_toIRZ4mainEUlNSt7__cxx1112basic_stringIcSt11char_traitsIcESaIcEEEE_S8_EE, 1
_ZN8concepts4defs25explicitly_convertible_toIRZ4mainEUlNSt7__cxx1112basic_stringIcSt11char_traitsIcESaIcEEEE_S8_EE:
	.byte	1
	.type	_ZN8concepts4defs14convertible_toIRKZ4mainEUlNSt7__cxx1112basic_stringIcSt11char_traitsIcESaIcEEEE_S8_EE, @object
	.size	_ZN8concepts4defs14convertible_toIRKZ4mainEUlNSt7__cxx1112basic_stringIcSt11char_traitsIcESaIcEEEE_S8_EE, 1
_ZN8concepts4defs14convertible_toIRKZ4mainEUlNSt7__cxx1112basic_stringIcSt11char_traitsIcESaIcEEEE_S8_EE:
	.byte	1
	.type	_ZN8concepts4defs25implicitly_convertible_toIRKZ4mainEUlNSt7__cxx1112basic_stringIcSt11char_traitsIcESaIcEEEE_S8_EE, @object
	.size	_ZN8concepts4defs25implicitly_convertible_toIRKZ4mainEUlNSt7__cxx1112basic_stringIcSt11char_traitsIcESaIcEEEE_S8_EE, 1
_ZN8concepts4defs25implicitly_convertible_toIRKZ4mainEUlNSt7__cxx1112basic_stringIcSt11char_traitsIcESaIcEEEE_S8_EE:
	.byte	1
	.type	_ZN8concepts4defs25explicitly_convertible_toIRKZ4mainEUlNSt7__cxx1112basic_stringIcSt11char_traitsIcESaIcEEEE_S8_EE, @object
	.size	_ZN8concepts4defs25explicitly_convertible_toIRKZ4mainEUlNSt7__cxx1112basic_stringIcSt11char_traitsIcESaIcEEEE_S8_EE, 1
_ZN8concepts4defs25explicitly_convertible_toIRKZ4mainEUlNSt7__cxx1112basic_stringIcSt11char_traitsIcESaIcEEEE_S8_EE:
	.byte	1
	.type	_ZN8concepts4defs14convertible_toIKZ4mainEUlNSt7__cxx1112basic_stringIcSt11char_traitsIcESaIcEEEE_S8_EE, @object
	.size	_ZN8concepts4defs14convertible_toIKZ4mainEUlNSt7__cxx1112basic_stringIcSt11char_traitsIcESaIcEEEE_S8_EE, 1
_ZN8concepts4defs14convertible_toIKZ4mainEUlNSt7__cxx1112basic_stringIcSt11char_traitsIcESaIcEEEE_S8_EE:
	.byte	1
	.type	_ZN8concepts4defs25implicitly_convertible_toIKZ4mainEUlNSt7__cxx1112basic_stringIcSt11char_traitsIcESaIcEEEE_S8_EE, @object
	.size	_ZN8concepts4defs25implicitly_convertible_toIKZ4mainEUlNSt7__cxx1112basic_stringIcSt11char_traitsIcESaIcEEEE_S8_EE, 1
_ZN8concepts4defs25implicitly_convertible_toIKZ4mainEUlNSt7__cxx1112basic_stringIcSt11char_traitsIcESaIcEEEE_S8_EE:
	.byte	1
	.type	_ZN8concepts4defs25explicitly_convertible_toIKZ4mainEUlNSt7__cxx1112basic_stringIcSt11char_traitsIcESaIcEEEE_S8_EE, @object
	.size	_ZN8concepts4defs25explicitly_convertible_toIKZ4mainEUlNSt7__cxx1112basic_stringIcSt11char_traitsIcESaIcEEEE_S8_EE, 1
_ZN8concepts4defs25explicitly_convertible_toIKZ4mainEUlNSt7__cxx1112basic_stringIcSt11char_traitsIcESaIcEEEE_S8_EE:
	.byte	1
	.type	_ZN6ranges17regular_invocableIRZ4mainEUlNSt7__cxx1112basic_stringIcSt11char_traitsIcESaIcEEEE_JRS6_EEE, @object
	.size	_ZN6ranges17regular_invocableIRZ4mainEUlNSt7__cxx1112basic_stringIcSt11char_traitsIcESaIcEEEE_JRS6_EEE, 1
_ZN6ranges17regular_invocableIRZ4mainEUlNSt7__cxx1112basic_stringIcSt11char_traitsIcESaIcEEEE_JRS6_EEE:
	.byte	1
	.type	_ZN6ranges9invocableIRZ4mainEUlNSt7__cxx1112basic_stringIcSt11char_traitsIcESaIcEEEE_JRS6_EEE, @object
	.size	_ZN6ranges9invocableIRZ4mainEUlNSt7__cxx1112basic_stringIcSt11char_traitsIcESaIcEEEE_JRS6_EEE, 1
_ZN6ranges9invocableIRZ4mainEUlNSt7__cxx1112basic_stringIcSt11char_traitsIcESaIcEEEE_JRS6_EEE:
	.byte	1
	.section	.text._ZN6ranges5views6all_fn11from_range_IRSt6vectorINSt7__cxx1112basic_stringIcSt11char_traitsIcESaIcEEESaIS9_EEEEDaOT_St17integral_constantIbLb0EESF_IbLb1EENS_6detail8ignore_tE,"axG",@progbits,_ZN6ranges5views6all_fn11from_range_IRSt6vectorINSt7__cxx1112basic_stringIcSt11char_traitsIcESaIcEEESaIS9_EEEEDaOT_St17integral_constantIbLb0EESF_IbLb1EENS_6detail8ignore_tE,comdat
	.weak	_ZN6ranges5views6all_fn11from_range_IRSt6vectorINSt7__cxx1112basic_stringIcSt11char_traitsIcESaIcEEESaIS9_EEEEDaOT_St17integral_constantIbLb0EESF_IbLb1EENS_6detail8ignore_tE
	.type	_ZN6ranges5views6all_fn11from_range_IRSt6vectorINSt7__cxx1112basic_stringIcSt11char_traitsIcESaIcEEESaIS9_EEEEDaOT_St17integral_constantIbLb0EESF_IbLb1EENS_6detail8ignore_tE, @function
_ZN6ranges5views6all_fn11from_range_IRSt6vectorINSt7__cxx1112basic_stringIcSt11char_traitsIcESaIcEEESaIS9_EEEEDaOT_St17integral_constantIbLb0EESF_IbLb1EENS_6detail8ignore_tE:
.LFB9269:
	.cfi_startproc
	endbr64
	pushq	%rbp
	.cfi_def_cfa_offset 16
	.cfi_offset 6, -16
	movq	%rsp, %rbp
	.cfi_def_cfa_register 6
	subq	$16, %rsp
	movq	%rdi, -8(%rbp)
	movq	-8(%rbp), %rax
	movq	%rax, %rsi
	leaq	_ZN6ranges5views3refE(%rip), %rax
	movq	%rax, %rdi
	call	_ZNK6ranges5views6ref_fnclISt6vectorINSt7__cxx1112basic_stringIcSt11char_traitsIcESaIcEEESaIS9_EELb1ELi0EEENS_8ref_viewIT_EERSD_
	leave
	.cfi_def_cfa 7, 8
	ret
	.cfi_endproc
.LFE9269:
	.size	_ZN6ranges5views6all_fn11from_range_IRSt6vectorINSt7__cxx1112basic_stringIcSt11char_traitsIcESaIcEEESaIS9_EEEEDaOT_St17integral_constantIbLb0EESF_IbLb1EENS_6detail8ignore_tE, .-_ZN6ranges5views6all_fn11from_range_IRSt6vectorINSt7__cxx1112basic_stringIcSt11char_traitsIcESaIcEEESaIS9_EEEEDaOT_St17integral_constantIbLb0EESF_IbLb1EENS_6detail8ignore_tE
	.section	.text._ZNK6ranges5views6all_fnclIRSt6vectorINSt7__cxx1112basic_stringIcSt11char_traitsIcESaIcEEESaIS9_EELb1ELi0ELi0EEEDaOT_,"axG",@progbits,_ZNK6ranges5views6all_fnclIRSt6vectorINSt7__cxx1112basic_stringIcSt11char_traitsIcESaIcEEESaIS9_EELb1ELi0ELi0EEEDaOT_,comdat
	.align 2
	.weak	_ZNK6ranges5views6all_fnclIRSt6vectorINSt7__cxx1112basic_stringIcSt11char_traitsIcESaIcEEESaIS9_EELb1ELi0ELi0EEEDaOT_
	.type	_ZNK6ranges5views6all_fnclIRSt6vectorINSt7__cxx1112basic_stringIcSt11char_traitsIcESaIcEEESaIS9_EELb1ELi0ELi0EEEDaOT_, @function
_ZNK6ranges5views6all_fnclIRSt6vectorINSt7__cxx1112basic_stringIcSt11char_traitsIcESaIcEEESaIS9_EELb1ELi0ELi0EEEDaOT_:
.LFB9268:
	.cfi_startproc
	endbr64
	pushq	%rbp
	.cfi_def_cfa_offset 16
	.cfi_offset 6, -16
	movq	%rsp, %rbp
	.cfi_def_cfa_register 6
	subq	$32, %rsp
	movq	%rdi, -24(%rbp)
	movq	%rsi, -32(%rbp)
	movq	%fs:40, %rax
	movq	%rax, -8(%rbp)
	xorl	%eax, %eax
	leaq	-10(%rbp), %rdx
	leaq	-9(%rbp), %rax
	movq	%rdx, %rsi
	movq	%rax, %rdi
	call	_ZN6ranges6detail8ignore_tC1ISt17integral_constantIbLb1EEEEOT_
	movq	-32(%rbp), %rax
	movq	%rax, %rdi
	call	_ZN6ranges5views6all_fn11from_range_IRSt6vectorINSt7__cxx1112basic_stringIcSt11char_traitsIcESaIcEEESaIS9_EEEEDaOT_St17integral_constantIbLb0EESF_IbLb1EENS_6detail8ignore_tE
	movq	-8(%rbp), %rdx
	subq	%fs:40, %rdx
	je	.L37
	call	__stack_chk_fail@PLT
.L37:
	leave
	.cfi_def_cfa 7, 8
	ret
	.cfi_endproc
.LFE9268:
	.size	_ZNK6ranges5views6all_fnclIRSt6vectorINSt7__cxx1112basic_stringIcSt11char_traitsIcESaIcEEESaIS9_EELb1ELi0ELi0EEEDaOT_, .-_ZNK6ranges5views6all_fnclIRSt6vectorINSt7__cxx1112basic_stringIcSt11char_traitsIcESaIcEEESaIS9_EELb1ELi0ELi0EEEDaOT_
	.section	.text._ZN6ranges5views6all_fn11from_range_INS_8ref_viewISt6vectorINSt7__cxx1112basic_stringIcSt11char_traitsIcESaIcEEESaISA_EEEEEEDaOT_St17integral_constantIbLb1EENS_6detail8ignore_tESJ_,"axG",@progbits,_ZN6ranges5views6all_fn11from_range_INS_8ref_viewISt6vectorINSt7__cxx1112basic_stringIcSt11char_traitsIcESaIcEEESaISA_EEEEEEDaOT_St17integral_constantIbLb1EENS_6detail8ignore_tESJ_,comdat
	.weak	_ZN6ranges5views6all_fn11from_range_INS_8ref_viewISt6vectorINSt7__cxx1112basic_stringIcSt11char_traitsIcESaIcEEESaISA_EEEEEEDaOT_St17integral_constantIbLb1EENS_6detail8ignore_tESJ_
	.type	_ZN6ranges5views6all_fn11from_range_INS_8ref_viewISt6vectorINSt7__cxx1112basic_stringIcSt11char_traitsIcESaIcEEESaISA_EEEEEEDaOT_St17integral_constantIbLb1EENS_6detail8ignore_tESJ_, @function
_ZN6ranges5views6all_fn11from_range_INS_8ref_viewISt6vectorINSt7__cxx1112basic_stringIcSt11char_traitsIcESaIcEEESaISA_EEEEEEDaOT_St17integral_constantIbLb1EENS_6detail8ignore_tESJ_:
.LFB9273:
	.cfi_startproc
	endbr64
	pushq	%rbp
	.cfi_def_cfa_offset 16
	.cfi_offset 6, -16
	movq	%rsp, %rbp
	.cfi_def_cfa_register 6
	movq	%rdi, -8(%rbp)
	movq	-8(%rbp), %rax
	movq	(%rax), %rax
	popq	%rbp
	.cfi_def_cfa 7, 8
	ret
	.cfi_endproc
.LFE9273:
	.size	_ZN6ranges5views6all_fn11from_range_INS_8ref_viewISt6vectorINSt7__cxx1112basic_stringIcSt11char_traitsIcESaIcEEESaISA_EEEEEEDaOT_St17integral_constantIbLb1EENS_6detail8ignore_tESJ_, .-_ZN6ranges5views6all_fn11from_range_INS_8ref_viewISt6vectorINSt7__cxx1112basic_stringIcSt11char_traitsIcESaIcEEESaISA_EEEEEEDaOT_St17integral_constantIbLb1EENS_6detail8ignore_tESJ_
	.section	.text._ZNK6ranges5views6all_fnclINS_8ref_viewISt6vectorINSt7__cxx1112basic_stringIcSt11char_traitsIcESaIcEEESaISA_EEEELb1ELi0ELi0EEEDaOT_,"axG",@progbits,_ZNK6ranges5views6all_fnclINS_8ref_viewISt6vectorINSt7__cxx1112basic_stringIcSt11char_traitsIcESaIcEEESaISA_EEEELb1ELi0ELi0EEEDaOT_,comdat
	.align 2
	.weak	_ZNK6ranges5views6all_fnclINS_8ref_viewISt6vectorINSt7__cxx1112basic_stringIcSt11char_traitsIcESaIcEEESaISA_EEEELb1ELi0ELi0EEEDaOT_
	.type	_ZNK6ranges5views6all_fnclINS_8ref_viewISt6vectorINSt7__cxx1112basic_stringIcSt11char_traitsIcESaIcEEESaISA_EEEELb1ELi0ELi0EEEDaOT_, @function
_ZNK6ranges5views6all_fnclINS_8ref_viewISt6vectorINSt7__cxx1112basic_stringIcSt11char_traitsIcESaIcEEESaISA_EEEELb1ELi0ELi0EEEDaOT_:
.LFB9272:
	.cfi_startproc
	endbr64
	pushq	%rbp
	.cfi_def_cfa_offset 16
	.cfi_offset 6, -16
	movq	%rsp, %rbp
	.cfi_def_cfa_register 6
	subq	$32, %rsp
	movq	%rdi, -24(%rbp)
	movq	%rsi, -32(%rbp)
	movq	%fs:40, %rax
	movq	%rax, -8(%rbp)
	xorl	%eax, %eax
	leaq	-11(%rbp), %rdx
	leaq	-9(%rbp), %rax
	movq	%rdx, %rsi
	movq	%rax, %rdi
	call	_ZN6ranges6detail8ignore_tC1ISt17integral_constantIbLb1EEEEOT_
	leaq	-12(%rbp), %rdx
	leaq	-10(%rbp), %rax
	movq	%rdx, %rsi
	movq	%rax, %rdi
	call	_ZN6ranges6detail8ignore_tC1ISt19is_lvalue_referenceINS_8ref_viewISt6vectorINSt7__cxx1112basic_stringIcSt11char_traitsIcESaIcEEESaISB_EEEEEEEOT_
	movq	-32(%rbp), %rax
	movq	%rax, %rdi
	call	_ZN6ranges5views6all_fn11from_range_INS_8ref_viewISt6vectorINSt7__cxx1112basic_stringIcSt11char_traitsIcESaIcEEESaISA_EEEEEEDaOT_St17integral_constantIbLb1EENS_6detail8ignore_tESJ_
	movq	-8(%rbp), %rdx
	subq	%fs:40, %rdx
	je	.L42
	call	__stack_chk_fail@PLT
.L42:
	leave
	.cfi_def_cfa 7, 8
	ret
	.cfi_endproc
.LFE9272:
	.size	_ZNK6ranges5views6all_fnclINS_8ref_viewISt6vectorINSt7__cxx1112basic_stringIcSt11char_traitsIcESaIcEEESaISA_EEEELb1ELi0ELi0EEEDaOT_, .-_ZNK6ranges5views6all_fnclINS_8ref_viewISt6vectorINSt7__cxx1112basic_stringIcSt11char_traitsIcESaIcEEESaISA_EEEELb1ELi0ELi0EEEDaOT_
	.section	.rodata
	.type	_ZN8concepts4defs11semiregularIN6ranges10indirectedIZ4mainEUlNSt7__cxx1112basic_stringIcSt11char_traitsIcESaIcEEEE_EEEE, @object
	.size	_ZN8concepts4defs11semiregularIN6ranges10indirectedIZ4mainEUlNSt7__cxx1112basic_stringIcSt11char_traitsIcESaIcEEEE_EEEE, 1
_ZN8concepts4defs11semiregularIN6ranges10indirectedIZ4mainEUlNSt7__cxx1112basic_stringIcSt11char_traitsIcESaIcEEEE_EEEE:
	.zero	1
	.type	_ZN8concepts4defs8copyableIN6ranges10indirectedIZ4mainEUlNSt7__cxx1112basic_stringIcSt11char_traitsIcESaIcEEEE_EEEE, @object
	.size	_ZN8concepts4defs8copyableIN6ranges10indirectedIZ4mainEUlNSt7__cxx1112basic_stringIcSt11char_traitsIcESaIcEEEE_EEEE, 1
_ZN8concepts4defs8copyableIN6ranges10indirectedIZ4mainEUlNSt7__cxx1112basic_stringIcSt11char_traitsIcESaIcEEEE_EEEE:
	.zero	1
	.type	_ZN8concepts4defs18copy_constructibleIN6ranges10indirectedIZ4mainEUlNSt7__cxx1112basic_stringIcSt11char_traitsIcESaIcEEEE_EEEE, @object
	.size	_ZN8concepts4defs18copy_constructibleIN6ranges10indirectedIZ4mainEUlNSt7__cxx1112basic_stringIcSt11char_traitsIcESaIcEEEE_EEEE, 1
_ZN8concepts4defs18copy_constructibleIN6ranges10indirectedIZ4mainEUlNSt7__cxx1112basic_stringIcSt11char_traitsIcESaIcEEEE_EEEE:
	.byte	1
	.type	_ZN8concepts4defs18move_constructibleIN6ranges10indirectedIZ4mainEUlNSt7__cxx1112basic_stringIcSt11char_traitsIcESaIcEEEE_EEEE, @object
	.size	_ZN8concepts4defs18move_constructibleIN6ranges10indirectedIZ4mainEUlNSt7__cxx1112basic_stringIcSt11char_traitsIcESaIcEEEE_EEEE, 1
_ZN8concepts4defs18move_constructibleIN6ranges10indirectedIZ4mainEUlNSt7__cxx1112basic_stringIcSt11char_traitsIcESaIcEEEE_EEEE:
	.byte	1
	.type	_ZN8concepts4defs18constructible_fromIN6ranges10indirectedIZ4mainEUlNSt7__cxx1112basic_stringIcSt11char_traitsIcESaIcEEEE_EEJSB_EEE, @object
	.size	_ZN8concepts4defs18constructible_fromIN6ranges10indirectedIZ4mainEUlNSt7__cxx1112basic_stringIcSt11char_traitsIcESaIcEEEE_EEJSB_EEE, 1
_ZN8concepts4defs18constructible_fromIN6ranges10indirectedIZ4mainEUlNSt7__cxx1112basic_stringIcSt11char_traitsIcESaIcEEEE_EEJSB_EEE:
	.byte	1
	.type	_ZN8concepts4defs12destructibleIN6ranges10indirectedIZ4mainEUlNSt7__cxx1112basic_stringIcSt11char_traitsIcESaIcEEEE_EEEE, @object
	.size	_ZN8concepts4defs12destructibleIN6ranges10indirectedIZ4mainEUlNSt7__cxx1112basic_stringIcSt11char_traitsIcESaIcEEEE_EEEE, 1
_ZN8concepts4defs12destructibleIN6ranges10indirectedIZ4mainEUlNSt7__cxx1112basic_stringIcSt11char_traitsIcESaIcEEEE_EEEE:
	.byte	1
	.type	_ZN8concepts4defs14convertible_toIN6ranges10indirectedIZ4mainEUlNSt7__cxx1112basic_stringIcSt11char_traitsIcESaIcEEEE_EESB_EE, @object
	.size	_ZN8concepts4defs14convertible_toIN6ranges10indirectedIZ4mainEUlNSt7__cxx1112basic_stringIcSt11char_traitsIcESaIcEEEE_EESB_EE, 1
_ZN8concepts4defs14convertible_toIN6ranges10indirectedIZ4mainEUlNSt7__cxx1112basic_stringIcSt11char_traitsIcESaIcEEEE_EESB_EE:
	.byte	1
	.type	_ZN8concepts4defs25implicitly_convertible_toIN6ranges10indirectedIZ4mainEUlNSt7__cxx1112basic_stringIcSt11char_traitsIcESaIcEEEE_EESB_EE, @object
	.size	_ZN8concepts4defs25implicitly_convertible_toIN6ranges10indirectedIZ4mainEUlNSt7__cxx1112basic_stringIcSt11char_traitsIcESaIcEEEE_EESB_EE, 1
_ZN8concepts4defs25implicitly_convertible_toIN6ranges10indirectedIZ4mainEUlNSt7__cxx1112basic_stringIcSt11char_traitsIcESaIcEEEE_EESB_EE:
	.byte	1
	.type	_ZN8concepts4defs25explicitly_convertible_toIN6ranges10indirectedIZ4mainEUlNSt7__cxx1112basic_stringIcSt11char_traitsIcESaIcEEEE_EESB_EE, @object
	.size	_ZN8concepts4defs25explicitly_convertible_toIN6ranges10indirectedIZ4mainEUlNSt7__cxx1112basic_stringIcSt11char_traitsIcESaIcEEEE_EESB_EE, 1
_ZN8concepts4defs25explicitly_convertible_toIN6ranges10indirectedIZ4mainEUlNSt7__cxx1112basic_stringIcSt11char_traitsIcESaIcEEEE_EESB_EE:
	.byte	1
	.type	_ZN8concepts4defs18constructible_fromIN6ranges10indirectedIZ4mainEUlNSt7__cxx1112basic_stringIcSt11char_traitsIcESaIcEEEE_EEJRSB_EEE, @object
	.size	_ZN8concepts4defs18constructible_fromIN6ranges10indirectedIZ4mainEUlNSt7__cxx1112basic_stringIcSt11char_traitsIcESaIcEEEE_EEJRSB_EEE, 1
_ZN8concepts4defs18constructible_fromIN6ranges10indirectedIZ4mainEUlNSt7__cxx1112basic_stringIcSt11char_traitsIcESaIcEEEE_EEJRSB_EEE:
	.byte	1
	.type	_ZN8concepts4defs18constructible_fromIN6ranges10indirectedIZ4mainEUlNSt7__cxx1112basic_stringIcSt11char_traitsIcESaIcEEEE_EEJRKSB_EEE, @object
	.size	_ZN8concepts4defs18constructible_fromIN6ranges10indirectedIZ4mainEUlNSt7__cxx1112basic_stringIcSt11char_traitsIcESaIcEEEE_EEJRKSB_EEE, 1
_ZN8concepts4defs18constructible_fromIN6ranges10indirectedIZ4mainEUlNSt7__cxx1112basic_stringIcSt11char_traitsIcESaIcEEEE_EEJRKSB_EEE:
	.byte	1
	.type	_ZN8concepts4defs18constructible_fromIN6ranges10indirectedIZ4mainEUlNSt7__cxx1112basic_stringIcSt11char_traitsIcESaIcEEEE_EEJKSB_EEE, @object
	.size	_ZN8concepts4defs18constructible_fromIN6ranges10indirectedIZ4mainEUlNSt7__cxx1112basic_stringIcSt11char_traitsIcESaIcEEEE_EEJKSB_EEE, 1
_ZN8concepts4defs18constructible_fromIN6ranges10indirectedIZ4mainEUlNSt7__cxx1112basic_stringIcSt11char_traitsIcESaIcEEEE_EEJKSB_EEE:
	.byte	1
	.type	_ZN8concepts4defs14convertible_toIRN6ranges10indirectedIZ4mainEUlNSt7__cxx1112basic_stringIcSt11char_traitsIcESaIcEEEE_EESB_EE, @object
	.size	_ZN8concepts4defs14convertible_toIRN6ranges10indirectedIZ4mainEUlNSt7__cxx1112basic_stringIcSt11char_traitsIcESaIcEEEE_EESB_EE, 1
_ZN8concepts4defs14convertible_toIRN6ranges10indirectedIZ4mainEUlNSt7__cxx1112basic_stringIcSt11char_traitsIcESaIcEEEE_EESB_EE:
	.byte	1
	.type	_ZN8concepts4defs25implicitly_convertible_toIRN6ranges10indirectedIZ4mainEUlNSt7__cxx1112basic_stringIcSt11char_traitsIcESaIcEEEE_EESB_EE, @object
	.size	_ZN8concepts4defs25implicitly_convertible_toIRN6ranges10indirectedIZ4mainEUlNSt7__cxx1112basic_stringIcSt11char_traitsIcESaIcEEEE_EESB_EE, 1
_ZN8concepts4defs25implicitly_convertible_toIRN6ranges10indirectedIZ4mainEUlNSt7__cxx1112basic_stringIcSt11char_traitsIcESaIcEEEE_EESB_EE:
	.byte	1
	.type	_ZN8concepts4defs25explicitly_convertible_toIRN6ranges10indirectedIZ4mainEUlNSt7__cxx1112basic_stringIcSt11char_traitsIcESaIcEEEE_EESB_EE, @object
	.size	_ZN8concepts4defs25explicitly_convertible_toIRN6ranges10indirectedIZ4mainEUlNSt7__cxx1112basic_stringIcSt11char_traitsIcESaIcEEEE_EESB_EE, 1
_ZN8concepts4defs25explicitly_convertible_toIRN6ranges10indirectedIZ4mainEUlNSt7__cxx1112basic_stringIcSt11char_traitsIcESaIcEEEE_EESB_EE:
	.byte	1
	.type	_ZN8concepts4defs14convertible_toIRKN6ranges10indirectedIZ4mainEUlNSt7__cxx1112basic_stringIcSt11char_traitsIcESaIcEEEE_EESB_EE, @object
	.size	_ZN8concepts4defs14convertible_toIRKN6ranges10indirectedIZ4mainEUlNSt7__cxx1112basic_stringIcSt11char_traitsIcESaIcEEEE_EESB_EE, 1
_ZN8concepts4defs14convertible_toIRKN6ranges10indirectedIZ4mainEUlNSt7__cxx1112basic_stringIcSt11char_traitsIcESaIcEEEE_EESB_EE:
	.byte	1
	.type	_ZN8concepts4defs25implicitly_convertible_toIRKN6ranges10indirectedIZ4mainEUlNSt7__cxx1112basic_stringIcSt11char_traitsIcESaIcEEEE_EESB_EE, @object
	.size	_ZN8concepts4defs25implicitly_convertible_toIRKN6ranges10indirectedIZ4mainEUlNSt7__cxx1112basic_stringIcSt11char_traitsIcESaIcEEEE_EESB_EE, 1
_ZN8concepts4defs25implicitly_convertible_toIRKN6ranges10indirectedIZ4mainEUlNSt7__cxx1112basic_stringIcSt11char_traitsIcESaIcEEEE_EESB_EE:
	.byte	1
	.type	_ZN8concepts4defs25explicitly_convertible_toIRKN6ranges10indirectedIZ4mainEUlNSt7__cxx1112basic_stringIcSt11char_traitsIcESaIcEEEE_EESB_EE, @object
	.size	_ZN8concepts4defs25explicitly_convertible_toIRKN6ranges10indirectedIZ4mainEUlNSt7__cxx1112basic_stringIcSt11char_traitsIcESaIcEEEE_EESB_EE, 1
_ZN8concepts4defs25explicitly_convertible_toIRKN6ranges10indirectedIZ4mainEUlNSt7__cxx1112basic_stringIcSt11char_traitsIcESaIcEEEE_EESB_EE:
	.byte	1
	.type	_ZN8concepts4defs14convertible_toIKN6ranges10indirectedIZ4mainEUlNSt7__cxx1112basic_stringIcSt11char_traitsIcESaIcEEEE_EESB_EE, @object
	.size	_ZN8concepts4defs14convertible_toIKN6ranges10indirectedIZ4mainEUlNSt7__cxx1112basic_stringIcSt11char_traitsIcESaIcEEEE_EESB_EE, 1
_ZN8concepts4defs14convertible_toIKN6ranges10indirectedIZ4mainEUlNSt7__cxx1112basic_stringIcSt11char_traitsIcESaIcEEEE_EESB_EE:
	.byte	1
	.type	_ZN8concepts4defs25implicitly_convertible_toIKN6ranges10indirectedIZ4mainEUlNSt7__cxx1112basic_stringIcSt11char_traitsIcESaIcEEEE_EESB_EE, @object
	.size	_ZN8concepts4defs25implicitly_convertible_toIKN6ranges10indirectedIZ4mainEUlNSt7__cxx1112basic_stringIcSt11char_traitsIcESaIcEEEE_EESB_EE, 1
_ZN8concepts4defs25implicitly_convertible_toIKN6ranges10indirectedIZ4mainEUlNSt7__cxx1112basic_stringIcSt11char_traitsIcESaIcEEEE_EESB_EE:
	.byte	1
	.type	_ZN8concepts4defs25explicitly_convertible_toIKN6ranges10indirectedIZ4mainEUlNSt7__cxx1112basic_stringIcSt11char_traitsIcESaIcEEEE_EESB_EE, @object
	.size	_ZN8concepts4defs25explicitly_convertible_toIKN6ranges10indirectedIZ4mainEUlNSt7__cxx1112basic_stringIcSt11char_traitsIcESaIcEEEE_EESB_EE, 1
_ZN8concepts4defs25explicitly_convertible_toIKN6ranges10indirectedIZ4mainEUlNSt7__cxx1112basic_stringIcSt11char_traitsIcESaIcEEEE_EESB_EE:
	.byte	1
	.type	_ZN8concepts4defs7movableIN6ranges10indirectedIZ4mainEUlNSt7__cxx1112basic_stringIcSt11char_traitsIcESaIcEEEE_EEEE, @object
	.size	_ZN8concepts4defs7movableIN6ranges10indirectedIZ4mainEUlNSt7__cxx1112basic_stringIcSt11char_traitsIcESaIcEEEE_EEEE, 1
_ZN8concepts4defs7movableIN6ranges10indirectedIZ4mainEUlNSt7__cxx1112basic_stringIcSt11char_traitsIcESaIcEEEE_EEEE:
	.zero	1
	.type	_ZN8concepts4defs15assignable_fromIRN6ranges10indirectedIZ4mainEUlNSt7__cxx1112basic_stringIcSt11char_traitsIcESaIcEEEE_EESB_EE, @object
	.size	_ZN8concepts4defs15assignable_fromIRN6ranges10indirectedIZ4mainEUlNSt7__cxx1112basic_stringIcSt11char_traitsIcESaIcEEEE_EESB_EE, 1
_ZN8concepts4defs15assignable_fromIRN6ranges10indirectedIZ4mainEUlNSt7__cxx1112basic_stringIcSt11char_traitsIcESaIcEEEE_EESB_EE:
	.zero	1
	.type	_ZN8concepts4defs21common_reference_withIRKN6ranges10indirectedIZ4mainEUlNSt7__cxx1112basic_stringIcSt11char_traitsIcESaIcEEEE_EESD_EE, @object
	.size	_ZN8concepts4defs21common_reference_withIRKN6ranges10indirectedIZ4mainEUlNSt7__cxx1112basic_stringIcSt11char_traitsIcESaIcEEEE_EESD_EE, 1
_ZN8concepts4defs21common_reference_withIRKN6ranges10indirectedIZ4mainEUlNSt7__cxx1112basic_stringIcSt11char_traitsIcESaIcEEEE_EESD_EE:
	.byte	1
	.type	_ZN8concepts4defs7same_asIRKN6ranges10indirectedIZ4mainEUlNSt7__cxx1112basic_stringIcSt11char_traitsIcESaIcEEEE_EESD_EE, @object
	.size	_ZN8concepts4defs7same_asIRKN6ranges10indirectedIZ4mainEUlNSt7__cxx1112basic_stringIcSt11char_traitsIcESaIcEEEE_EESD_EE, 1
_ZN8concepts4defs7same_asIRKN6ranges10indirectedIZ4mainEUlNSt7__cxx1112basic_stringIcSt11char_traitsIcESaIcEEEE_EESD_EE:
	.byte	1
	.type	_ZN8concepts4defs14convertible_toIRKN6ranges10indirectedIZ4mainEUlNSt7__cxx1112basic_stringIcSt11char_traitsIcESaIcEEEE_EESD_EE, @object
	.size	_ZN8concepts4defs14convertible_toIRKN6ranges10indirectedIZ4mainEUlNSt7__cxx1112basic_stringIcSt11char_traitsIcESaIcEEEE_EESD_EE, 1
_ZN8concepts4defs14convertible_toIRKN6ranges10indirectedIZ4mainEUlNSt7__cxx1112basic_stringIcSt11char_traitsIcESaIcEEEE_EESD_EE:
	.byte	1
	.type	_ZN8concepts4defs25implicitly_convertible_toIRKN6ranges10indirectedIZ4mainEUlNSt7__cxx1112basic_stringIcSt11char_traitsIcESaIcEEEE_EESD_EE, @object
	.size	_ZN8concepts4defs25implicitly_convertible_toIRKN6ranges10indirectedIZ4mainEUlNSt7__cxx1112basic_stringIcSt11char_traitsIcESaIcEEEE_EESD_EE, 1
_ZN8concepts4defs25implicitly_convertible_toIRKN6ranges10indirectedIZ4mainEUlNSt7__cxx1112basic_stringIcSt11char_traitsIcESaIcEEEE_EESD_EE:
	.byte	1
	.type	_ZN8concepts4defs25explicitly_convertible_toIRKN6ranges10indirectedIZ4mainEUlNSt7__cxx1112basic_stringIcSt11char_traitsIcESaIcEEEE_EESD_EE, @object
	.size	_ZN8concepts4defs25explicitly_convertible_toIRKN6ranges10indirectedIZ4mainEUlNSt7__cxx1112basic_stringIcSt11char_traitsIcESaIcEEEE_EESD_EE, 1
_ZN8concepts4defs25explicitly_convertible_toIRKN6ranges10indirectedIZ4mainEUlNSt7__cxx1112basic_stringIcSt11char_traitsIcESaIcEEEE_EESD_EE:
	.byte	1
	.type	_ZN8concepts4defs9swappableIN6ranges10indirectedIZ4mainEUlNSt7__cxx1112basic_stringIcSt11char_traitsIcESaIcEEEE_EEEE, @object
	.size	_ZN8concepts4defs9swappableIN6ranges10indirectedIZ4mainEUlNSt7__cxx1112basic_stringIcSt11char_traitsIcESaIcEEEE_EEEE, 1
_ZN8concepts4defs9swappableIN6ranges10indirectedIZ4mainEUlNSt7__cxx1112basic_stringIcSt11char_traitsIcESaIcEEEE_EEEE:
	.zero	1
	.type	_ZN8concepts15adl_swap_detail18is_adl_swappable_vIRN6ranges10indirectedIZ4mainEUlNSt7__cxx1112basic_stringIcSt11char_traitsIcESaIcEEEE_EESC_EE, @object
	.size	_ZN8concepts15adl_swap_detail18is_adl_swappable_vIRN6ranges10indirectedIZ4mainEUlNSt7__cxx1112basic_stringIcSt11char_traitsIcESaIcEEEE_EESC_EE, 1
_ZN8concepts15adl_swap_detail18is_adl_swappable_vIRN6ranges10indirectedIZ4mainEUlNSt7__cxx1112basic_stringIcSt11char_traitsIcESaIcEEEE_EESC_EE:
	.zero	1
	.type	_ZN8concepts6detail12is_movable_vIN6ranges10indirectedIZ4mainEUlNSt7__cxx1112basic_stringIcSt11char_traitsIcESaIcEEEE_EEEE, @object
	.size	_ZN8concepts6detail12is_movable_vIN6ranges10indirectedIZ4mainEUlNSt7__cxx1112basic_stringIcSt11char_traitsIcESaIcEEEE_EEEE, 1
_ZN8concepts6detail12is_movable_vIN6ranges10indirectedIZ4mainEUlNSt7__cxx1112basic_stringIcSt11char_traitsIcESaIcEEEE_EEEE:
	.zero	1
	.type	_ZN8concepts4defs15assignable_fromIRN6ranges10indirectedIZ4mainEUlNSt7__cxx1112basic_stringIcSt11char_traitsIcESaIcEEEE_EERKSB_EE, @object
	.size	_ZN8concepts4defs15assignable_fromIRN6ranges10indirectedIZ4mainEUlNSt7__cxx1112basic_stringIcSt11char_traitsIcESaIcEEEE_EERKSB_EE, 1
_ZN8concepts4defs15assignable_fromIRN6ranges10indirectedIZ4mainEUlNSt7__cxx1112basic_stringIcSt11char_traitsIcESaIcEEEE_EERKSB_EE:
	.zero	1
	.type	_ZN8concepts4defs21default_constructibleIN6ranges10indirectedIZ4mainEUlNSt7__cxx1112basic_stringIcSt11char_traitsIcESaIcEEEE_EEEE, @object
	.size	_ZN8concepts4defs21default_constructibleIN6ranges10indirectedIZ4mainEUlNSt7__cxx1112basic_stringIcSt11char_traitsIcESaIcEEEE_EEEE, 1
_ZN8concepts4defs21default_constructibleIN6ranges10indirectedIZ4mainEUlNSt7__cxx1112basic_stringIcSt11char_traitsIcESaIcEEEE_EEEE:
	.zero	1
	.type	_ZN8concepts4defs18constructible_fromIN6ranges10indirectedIZ4mainEUlNSt7__cxx1112basic_stringIcSt11char_traitsIcESaIcEEEE_EEJEEE, @object
	.size	_ZN8concepts4defs18constructible_fromIN6ranges10indirectedIZ4mainEUlNSt7__cxx1112basic_stringIcSt11char_traitsIcESaIcEEEE_EEJEEE, 1
_ZN8concepts4defs18constructible_fromIN6ranges10indirectedIZ4mainEUlNSt7__cxx1112basic_stringIcSt11char_traitsIcESaIcEEEE_EEJEEE:
	.zero	1
	.type	_ZN6ranges22is_nothrow_invocable_vINS_5views17transform_base_fnEJRSt6vectorINSt7__cxx1112basic_stringIcSt11char_traitsIcESaIcEEESaIS9_EEZ4mainEUlS9_E_EEE, @object
	.size	_ZN6ranges22is_nothrow_invocable_vINS_5views17transform_base_fnEJRSt6vectorINSt7__cxx1112basic_stringIcSt11char_traitsIcESaIcEEESaIS9_EEZ4mainEUlS9_E_EEE, 1
_ZN6ranges22is_nothrow_invocable_vINS_5views17transform_base_fnEJRSt6vectorINSt7__cxx1112basic_stringIcSt11char_traitsIcESaIcEEESaIS9_EEZ4mainEUlS9_E_EEE:
	.zero	1
	.type	_ZN6ranges14is_invocable_vINS_5views17transform_base_fnEJRSt6vectorINSt7__cxx1112basic_stringIcSt11char_traitsIcESaIcEEESaIS9_EEZ4mainEUlS9_E_EEE, @object
	.size	_ZN6ranges14is_invocable_vINS_5views17transform_base_fnEJRSt6vectorINSt7__cxx1112basic_stringIcSt11char_traitsIcESaIcEEESaIS9_EEZ4mainEUlS9_E_EEE, 1
_ZN6ranges14is_invocable_vINS_5views17transform_base_fnEJRSt6vectorINSt7__cxx1112basic_stringIcSt11char_traitsIcESaIcEEESaIS9_EEZ4mainEUlS9_E_EEE:
	.byte	1
	.type	_ZN4meta10is_trait_vIN6ranges13invoke_resultINS1_5views17transform_base_fnEJRSt6vectorINSt7__cxx1112basic_stringIcSt11char_traitsIcESaIcEEESaISB_EEZ4mainEUlSB_E_EEEEE, @object
	.size	_ZN4meta10is_trait_vIN6ranges13invoke_resultINS1_5views17transform_base_fnEJRSt6vectorINSt7__cxx1112basic_stringIcSt11char_traitsIcESaIcEEESaISB_EEZ4mainEUlSB_E_EEEEE, 1
_ZN4meta10is_trait_vIN6ranges13invoke_resultINS1_5views17transform_base_fnEJRSt6vectorINSt7__cxx1112basic_stringIcSt11char_traitsIcESaIcEEESaISB_EEZ4mainEUlSB_E_EEEEE:
	.byte	1
	.type	_ZN4meta6detail9is_trait_IN6ranges13invoke_resultINS2_5views17transform_base_fnEJRSt6vectorINSt7__cxx1112basic_stringIcSt11char_traitsIcESaIcEEESaISC_EEZ4mainEUlSC_E_EEEvEE, @object
	.size	_ZN4meta6detail9is_trait_IN6ranges13invoke_resultINS2_5views17transform_base_fnEJRSt6vectorINSt7__cxx1112basic_stringIcSt11char_traitsIcESaIcEEESaISC_EEZ4mainEUlSC_E_EEEvEE, 1
_ZN4meta6detail9is_trait_IN6ranges13invoke_resultINS2_5views17transform_base_fnEJRSt6vectorINSt7__cxx1112basic_stringIcSt11char_traitsIcESaIcEEESaISC_EEZ4mainEUlSC_E_EEEvEE:
	.byte	1
	.type	_ZN8concepts4defs12derived_fromIN6ranges14transform_viewINS2_8ref_viewISt6vectorINSt7__cxx1112basic_stringIcSt11char_traitsIcESaIcEEESaISB_EEEEZ4mainEUlSB_E_EENS2_6detail18view_closure_base_EEE, @object
	.size	_ZN8concepts4defs12derived_fromIN6ranges14transform_viewINS2_8ref_viewISt6vectorINSt7__cxx1112basic_stringIcSt11char_traitsIcESaIcEEESaISB_EEEEZ4mainEUlSB_E_EENS2_6detail18view_closure_base_EEE, 1
_ZN8concepts4defs12derived_fromIN6ranges14transform_viewINS2_8ref_viewISt6vectorINSt7__cxx1112basic_stringIcSt11char_traitsIcESaIcEEESaISB_EEEEZ4mainEUlSB_E_EENS2_6detail18view_closure_base_EEE:
	.zero	1
	.type	_ZN8concepts4defs14convertible_toIPVKN6ranges14transform_viewINS2_8ref_viewISt6vectorINSt7__cxx1112basic_stringIcSt11char_traitsIcESaIcEEESaISB_EEEEZ4mainEUlSB_E_EEPVKNS2_6detail18view_closure_base_EEE, @object
	.size	_ZN8concepts4defs14convertible_toIPVKN6ranges14transform_viewINS2_8ref_viewISt6vectorINSt7__cxx1112basic_stringIcSt11char_traitsIcESaIcEEESaISB_EEEEZ4mainEUlSB_E_EEPVKNS2_6detail18view_closure_base_EEE, 1
_ZN8concepts4defs14convertible_toIPVKN6ranges14transform_viewINS2_8ref_viewISt6vectorINSt7__cxx1112basic_stringIcSt11char_traitsIcESaIcEEESaISB_EEEEZ4mainEUlSB_E_EEPVKNS2_6detail18view_closure_base_EEE:
	.zero	1
	.type	_ZN8concepts4defs25implicitly_convertible_toIPVKN6ranges14transform_viewINS2_8ref_viewISt6vectorINSt7__cxx1112basic_stringIcSt11char_traitsIcESaIcEEESaISB_EEEEZ4mainEUlSB_E_EEPVKNS2_6detail18view_closure_base_EEE, @object
	.size	_ZN8concepts4defs25implicitly_convertible_toIPVKN6ranges14transform_viewINS2_8ref_viewISt6vectorINSt7__cxx1112basic_stringIcSt11char_traitsIcESaIcEEESaISB_EEEEZ4mainEUlSB_E_EEPVKNS2_6detail18view_closure_base_EEE, 1
_ZN8concepts4defs25implicitly_convertible_toIPVKN6ranges14transform_viewINS2_8ref_viewISt6vectorINSt7__cxx1112basic_stringIcSt11char_traitsIcESaIcEEESaISB_EEEEZ4mainEUlSB_E_EEPVKNS2_6detail18view_closure_base_EEE:
	.zero	1
	.type	_ZN8concepts4defs25explicitly_convertible_toIPVKN6ranges14transform_viewINS2_8ref_viewISt6vectorINSt7__cxx1112basic_stringIcSt11char_traitsIcESaIcEEESaISB_EEEEZ4mainEUlSB_E_EEPVKNS2_6detail18view_closure_base_EEE, @object
	.size	_ZN8concepts4defs25explicitly_convertible_toIPVKN6ranges14transform_viewINS2_8ref_viewISt6vectorINSt7__cxx1112basic_stringIcSt11char_traitsIcESaIcEEESaISB_EEEEZ4mainEUlSB_E_EEPVKNS2_6detail18view_closure_base_EEE, 1
_ZN8concepts4defs25explicitly_convertible_toIPVKN6ranges14transform_viewINS2_8ref_viewISt6vectorINSt7__cxx1112basic_stringIcSt11char_traitsIcESaIcEEESaISB_EEEEZ4mainEUlSB_E_EEPVKNS2_6detail18view_closure_base_EEE:
	.zero	1
	.text
	.align 2
	.type	_ZN6ranges19iter_transform_viewINS_8ref_viewISt6vectorINSt7__cxx1112basic_stringIcSt11char_traitsIcESaIcEEESaIS8_EEEENS_10indirectedIZ4mainEUlS8_E_EEED2Ev, @function
_ZN6ranges19iter_transform_viewINS_8ref_viewISt6vectorINSt7__cxx1112basic_stringIcSt11char_traitsIcESaIcEEESaIS8_EEEENS_10indirectedIZ4mainEUlS8_E_EEED2Ev:
.LFB9280:
	.cfi_startproc
	pushq	%rbp
	.cfi_def_cfa_offset 16
	.cfi_offset 6, -16
	movq	%rsp, %rbp
	.cfi_def_cfa_register 6
	subq	$16, %rsp
	movq	%rdi, -8(%rbp)
	movq	-8(%rbp), %rax
	addq	$16, %rax
	movq	%rax, %rdi
	call	_ZN6ranges15semiregular_boxINS_10indirectedIZ4mainEUlNSt7__cxx1112basic_stringIcSt11char_traitsIcESaIcEEEE_EEED1Ev
	nop
	leave
	.cfi_def_cfa 7, 8
	ret
	.cfi_endproc
.LFE9280:
	.size	_ZN6ranges19iter_transform_viewINS_8ref_viewISt6vectorINSt7__cxx1112basic_stringIcSt11char_traitsIcESaIcEEESaIS8_EEEENS_10indirectedIZ4mainEUlS8_E_EEED2Ev, .-_ZN6ranges19iter_transform_viewINS_8ref_viewISt6vectorINSt7__cxx1112basic_stringIcSt11char_traitsIcESaIcEEESaIS8_EEEENS_10indirectedIZ4mainEUlS8_E_EEED2Ev
	.align 2
	.type	_ZN6ranges14transform_viewINS_8ref_viewISt6vectorINSt7__cxx1112basic_stringIcSt11char_traitsIcESaIcEEESaIS8_EEEEZ4mainEUlS8_E_ED2Ev, @function
_ZN6ranges14transform_viewINS_8ref_viewISt6vectorINSt7__cxx1112basic_stringIcSt11char_traitsIcESaIcEEESaIS8_EEEEZ4mainEUlS8_E_ED2Ev:
.LFB9282:
	.cfi_startproc
	pushq	%rbp
	.cfi_def_cfa_offset 16
	.cfi_offset 6, -16
	movq	%rsp, %rbp
	.cfi_def_cfa_register 6
	subq	$16, %rsp
	movq	%rdi, -8(%rbp)
	movq	-8(%rbp), %rax
	movq	%rax, %rdi
	call	_ZN6ranges19iter_transform_viewINS_8ref_viewISt6vectorINSt7__cxx1112basic_stringIcSt11char_traitsIcESaIcEEESaIS8_EEEENS_10indirectedIZ4mainEUlS8_E_EEED2Ev
	nop
	leave
	.cfi_def_cfa 7, 8
	ret
	.cfi_endproc
.LFE9282:
	.size	_ZN6ranges14transform_viewINS_8ref_viewISt6vectorINSt7__cxx1112basic_stringIcSt11char_traitsIcESaIcEEESaIS8_EEEEZ4mainEUlS8_E_ED2Ev, .-_ZN6ranges14transform_viewINS_8ref_viewISt6vectorINSt7__cxx1112basic_stringIcSt11char_traitsIcESaIcEEESaIS8_EEEEZ4mainEUlS8_E_ED2Ev
	.set	_ZN6ranges14transform_viewINS_8ref_viewISt6vectorINSt7__cxx1112basic_stringIcSt11char_traitsIcESaIcEEESaIS8_EEEEZ4mainEUlS8_E_ED1Ev,_ZN6ranges14transform_viewINS_8ref_viewISt6vectorINSt7__cxx1112basic_stringIcSt11char_traitsIcESaIcEEESaIS8_EEEEZ4mainEUlS8_E_ED2Ev
	.type	_ZN6ranges5views20view_closure_base_nsorIRSt6vectorINSt7__cxx1112basic_stringIcSt11char_traitsIcESaIcEEESaIS9_EENS_6detail13bind_back_fn_INS0_17transform_base_fnEJZ4mainEUlS9_E_EEELb1ELi0ELi0EEEDaOT_NS0_12view_closureIT0_EE, @function
_ZN6ranges5views20view_closure_base_nsorIRSt6vectorINSt7__cxx1112basic_stringIcSt11char_traitsIcESaIcEEESaIS9_EENS_6detail13bind_back_fn_INS0_17transform_base_fnEJZ4mainEUlS9_E_EEELb1ELi0ELi0EEEDaOT_NS0_12view_closureIT0_EE:
.LFB9277:
	.cfi_startproc
	pushq	%rbp
	.cfi_def_cfa_offset 16
	.cfi_offset 6, -16
	movq	%rsp, %rbp
	.cfi_def_cfa_register 6
	subq	$48, %rsp
	movq	%rdi, -24(%rbp)
	movq	%rsi, -32(%rbp)
	movq	%fs:40, %rax
	movq	%rax, -8(%rbp)
	xorl	%eax, %eax
	movq	-24(%rbp), %rax
	movq	-32(%rbp), %rdx
	leaq	-34(%rbp), %rcx
	movq	%rcx, %rsi
	movq	%rax, %rdi
	call	_ZNO6ranges6detail13bind_back_fn_INS_5views17transform_base_fnEJZ4mainEUlNSt7__cxx1112basic_stringIcSt11char_traitsIcESaIcEEEE_EEclIJRSt6vectorIS9_SaIS9_EEEEEDTclL_ZNS_6invokeEEcl7declvalIS3_EEspcl7declvalIT_EEcl7declvalISA_EEEEDpOSH_
	movq	-8(%rbp), %rax
	subq	%fs:40, %rax
	je	.L47
	call	__stack_chk_fail@PLT
.L47:
	movq	-24(%rbp), %rax
	leave
	.cfi_def_cfa 7, 8
	ret
	.cfi_endproc
.LFE9277:
	.size	_ZN6ranges5views20view_closure_base_nsorIRSt6vectorINSt7__cxx1112basic_stringIcSt11char_traitsIcESaIcEEESaIS9_EENS_6detail13bind_back_fn_INS0_17transform_base_fnEJZ4mainEUlS9_E_EEELb1ELi0ELi0EEEDaOT_NS0_12view_closureIT0_EE, .-_ZN6ranges5views20view_closure_base_nsorIRSt6vectorINSt7__cxx1112basic_stringIcSt11char_traitsIcESaIcEEESaIS9_EENS_6detail13bind_back_fn_INS0_17transform_base_fnEJZ4mainEUlS9_E_EEELb1ELi0ELi0EEEDaOT_NS0_12view_closureIT0_EE
	.section	.rodata
	.type	_ZN8concepts4defs7same_asIN6ranges19iter_transform_viewINS2_8ref_viewISt6vectorINSt7__cxx1112basic_stringIcSt11char_traitsIcESaIcEEESaISB_EEEENS2_10indirectedIZ4mainEUlSB_E_EEEESI_EE, @object
	.size	_ZN8concepts4defs7same_asIN6ranges19iter_transform_viewINS2_8ref_viewISt6vectorINSt7__cxx1112basic_stringIcSt11char_traitsIcESaIcEEESaISB_EEEENS2_10indirectedIZ4mainEUlSB_E_EEEESI_EE, 1
_ZN8concepts4defs7same_asIN6ranges19iter_transform_viewINS2_8ref_viewISt6vectorINSt7__cxx1112basic_stringIcSt11char_traitsIcESaIcEEESaISB_EEEENS2_10indirectedIZ4mainEUlSB_E_EEEESI_EE:
	.byte	1
	.type	_ZN6ranges6detail25iter_transform_1_readableIKNS_10indirectedIZ4mainEUlNSt7__cxx1112basic_stringIcSt11char_traitsIcESaIcEEEE_EEKNS_8ref_viewISt6vectorIS8_SaIS8_EEEEEE, @object
	.size	_ZN6ranges6detail25iter_transform_1_readableIKNS_10indirectedIZ4mainEUlNSt7__cxx1112basic_stringIcSt11char_traitsIcESaIcEEEE_EEKNS_8ref_viewISt6vectorIS8_SaIS8_EEEEEE, 1
_ZN6ranges6detail25iter_transform_1_readableIKNS_10indirectedIZ4mainEUlNSt7__cxx1112basic_stringIcSt11char_traitsIcESaIcEEEE_EEKNS_8ref_viewISt6vectorIS8_SaIS8_EEEEEE:
	.byte	1
	.type	_ZN6ranges17regular_invocableIRKNS_10indirectedIZ4mainEUlNSt7__cxx1112basic_stringIcSt11char_traitsIcESaIcEEEE_EEJN9__gnu_cxx17__normal_iteratorIPS7_St6vectorIS7_SaIS7_EEEEEEE, @object
	.size	_ZN6ranges17regular_invocableIRKNS_10indirectedIZ4mainEUlNSt7__cxx1112basic_stringIcSt11char_traitsIcESaIcEEEE_EEJN9__gnu_cxx17__normal_iteratorIPS7_St6vectorIS7_SaIS7_EEEEEEE, 1
_ZN6ranges17regular_invocableIRKNS_10indirectedIZ4mainEUlNSt7__cxx1112basic_stringIcSt11char_traitsIcESaIcEEEE_EEJN9__gnu_cxx17__normal_iteratorIPS7_St6vectorIS7_SaIS7_EEEEEEE:
	.byte	1
	.type	_ZN6ranges9invocableIRKNS_10indirectedIZ4mainEUlNSt7__cxx1112basic_stringIcSt11char_traitsIcESaIcEEEE_EEJN9__gnu_cxx17__normal_iteratorIPS7_St6vectorIS7_SaIS7_EEEEEEE, @object
	.size	_ZN6ranges9invocableIRKNS_10indirectedIZ4mainEUlNSt7__cxx1112basic_stringIcSt11char_traitsIcESaIcEEEE_EEJN9__gnu_cxx17__normal_iteratorIPS7_St6vectorIS7_SaIS7_EEEEEEE, 1
_ZN6ranges9invocableIRKNS_10indirectedIZ4mainEUlNSt7__cxx1112basic_stringIcSt11char_traitsIcESaIcEEEE_EEJN9__gnu_cxx17__normal_iteratorIPS7_St6vectorIS7_SaIS7_EEEEEEE:
	.byte	1
	.type	_ZN6ranges17regular_invocableIRKNS_10indirectedIZ4mainEUlNSt7__cxx1112basic_stringIcSt11char_traitsIcESaIcEEEE_EEJNS_8copy_tagEN9__gnu_cxx17__normal_iteratorIPS7_St6vectorIS7_SaIS7_EEEEEEE, @object
	.size	_ZN6ranges17regular_invocableIRKNS_10indirectedIZ4mainEUlNSt7__cxx1112basic_stringIcSt11char_traitsIcESaIcEEEE_EEJNS_8copy_tagEN9__gnu_cxx17__normal_iteratorIPS7_St6vectorIS7_SaIS7_EEEEEEE, 1
_ZN6ranges17regular_invocableIRKNS_10indirectedIZ4mainEUlNSt7__cxx1112basic_stringIcSt11char_traitsIcESaIcEEEE_EEJNS_8copy_tagEN9__gnu_cxx17__normal_iteratorIPS7_St6vectorIS7_SaIS7_EEEEEEE:
	.byte	1
	.type	_ZN6ranges9invocableIRKNS_10indirectedIZ4mainEUlNSt7__cxx1112basic_stringIcSt11char_traitsIcESaIcEEEE_EEJNS_8copy_tagEN9__gnu_cxx17__normal_iteratorIPS7_St6vectorIS7_SaIS7_EEEEEEE, @object
	.size	_ZN6ranges9invocableIRKNS_10indirectedIZ4mainEUlNSt7__cxx1112basic_stringIcSt11char_traitsIcESaIcEEEE_EEJNS_8copy_tagEN9__gnu_cxx17__normal_iteratorIPS7_St6vectorIS7_SaIS7_EEEEEEE, 1
_ZN6ranges9invocableIRKNS_10indirectedIZ4mainEUlNSt7__cxx1112basic_stringIcSt11char_traitsIcESaIcEEEE_EEJNS_8copy_tagEN9__gnu_cxx17__normal_iteratorIPS7_St6vectorIS7_SaIS7_EEEEEEE:
	.byte	1
	.type	_ZN6ranges17regular_invocableIRKNS_10indirectedIZ4mainEUlNSt7__cxx1112basic_stringIcSt11char_traitsIcESaIcEEEE_EEJNS_8move_tagEN9__gnu_cxx17__normal_iteratorIPS7_St6vectorIS7_SaIS7_EEEEEEE, @object
	.size	_ZN6ranges17regular_invocableIRKNS_10indirectedIZ4mainEUlNSt7__cxx1112basic_stringIcSt11char_traitsIcESaIcEEEE_EEJNS_8move_tagEN9__gnu_cxx17__normal_iteratorIPS7_St6vectorIS7_SaIS7_EEEEEEE, 1
_ZN6ranges17regular_invocableIRKNS_10indirectedIZ4mainEUlNSt7__cxx1112basic_stringIcSt11char_traitsIcESaIcEEEE_EEJNS_8move_tagEN9__gnu_cxx17__normal_iteratorIPS7_St6vectorIS7_SaIS7_EEEEEEE:
	.byte	1
	.type	_ZN6ranges9invocableIRKNS_10indirectedIZ4mainEUlNSt7__cxx1112basic_stringIcSt11char_traitsIcESaIcEEEE_EEJNS_8move_tagEN9__gnu_cxx17__normal_iteratorIPS7_St6vectorIS7_SaIS7_EEEEEEE, @object
	.size	_ZN6ranges9invocableIRKNS_10indirectedIZ4mainEUlNSt7__cxx1112basic_stringIcSt11char_traitsIcESaIcEEEE_EEJNS_8move_tagEN9__gnu_cxx17__normal_iteratorIPS7_St6vectorIS7_SaIS7_EEEEEEE, 1
_ZN6ranges9invocableIRKNS_10indirectedIZ4mainEUlNSt7__cxx1112basic_stringIcSt11char_traitsIcESaIcEEEE_EEJNS_8move_tagEN9__gnu_cxx17__normal_iteratorIPS7_St6vectorIS7_SaIS7_EEEEEEE:
	.byte	1
	.type	_ZN6ranges9invocableINS_10indirectedIZ4mainEUlNSt7__cxx1112basic_stringIcSt11char_traitsIcESaIcEEEE_EEJRN9__gnu_cxx17__normal_iteratorIPS7_St6vectorIS7_SaIS7_EEEEEEE, @object
	.size	_ZN6ranges9invocableINS_10indirectedIZ4mainEUlNSt7__cxx1112basic_stringIcSt11char_traitsIcESaIcEEEE_EEJRN9__gnu_cxx17__normal_iteratorIPS7_St6vectorIS7_SaIS7_EEEEEEE, 1
_ZN6ranges9invocableINS_10indirectedIZ4mainEUlNSt7__cxx1112basic_stringIcSt11char_traitsIcESaIcEEEE_EEJRN9__gnu_cxx17__normal_iteratorIPS7_St6vectorIS7_SaIS7_EEEEEEE:
	.byte	1
	.type	_ZN6ranges9invocableIRKNS_10indirectedIZ4mainEUlNSt7__cxx1112basic_stringIcSt11char_traitsIcESaIcEEEE_EEJRN9__gnu_cxx17__normal_iteratorIPS7_St6vectorIS7_SaIS7_EEEEEEE, @object
	.size	_ZN6ranges9invocableIRKNS_10indirectedIZ4mainEUlNSt7__cxx1112basic_stringIcSt11char_traitsIcESaIcEEEE_EEJRN9__gnu_cxx17__normal_iteratorIPS7_St6vectorIS7_SaIS7_EEEEEEE, 1
_ZN6ranges9invocableIRKNS_10indirectedIZ4mainEUlNSt7__cxx1112basic_stringIcSt11char_traitsIcESaIcEEEE_EEJRN9__gnu_cxx17__normal_iteratorIPS7_St6vectorIS7_SaIS7_EEEEEEE:
	.byte	1
	.type	_ZN6ranges9invocableIRNS_10indirectedIZ4mainEUlNSt7__cxx1112basic_stringIcSt11char_traitsIcESaIcEEEE_EEJRN9__gnu_cxx17__normal_iteratorIPS7_St6vectorIS7_SaIS7_EEEEEEE, @object
	.size	_ZN6ranges9invocableIRNS_10indirectedIZ4mainEUlNSt7__cxx1112basic_stringIcSt11char_traitsIcESaIcEEEE_EEJRN9__gnu_cxx17__normal_iteratorIPS7_St6vectorIS7_SaIS7_EEEEEEE, 1
_ZN6ranges9invocableIRNS_10indirectedIZ4mainEUlNSt7__cxx1112basic_stringIcSt11char_traitsIcESaIcEEEE_EEJRN9__gnu_cxx17__normal_iteratorIPS7_St6vectorIS7_SaIS7_EEEEEEE:
	.byte	1
	.type	_ZN6ranges22is_nothrow_invocable_vIRKNS_10indirectedIZ4mainEUlNSt7__cxx1112basic_stringIcSt11char_traitsIcESaIcEEEE_EEJRN9__gnu_cxx17__normal_iteratorIPS7_St6vectorIS7_SaIS7_EEEEEEE, @object
	.size	_ZN6ranges22is_nothrow_invocable_vIRKNS_10indirectedIZ4mainEUlNSt7__cxx1112basic_stringIcSt11char_traitsIcESaIcEEEE_EEJRN9__gnu_cxx17__normal_iteratorIPS7_St6vectorIS7_SaIS7_EEEEEEE, 1
_ZN6ranges22is_nothrow_invocable_vIRKNS_10indirectedIZ4mainEUlNSt7__cxx1112basic_stringIcSt11char_traitsIcESaIcEEEE_EEJRN9__gnu_cxx17__normal_iteratorIPS7_St6vectorIS7_SaIS7_EEEEEEE:
	.zero	1
	.type	_ZN6ranges14is_invocable_vIRKNS_10indirectedIZ4mainEUlNSt7__cxx1112basic_stringIcSt11char_traitsIcESaIcEEEE_EEJRN9__gnu_cxx17__normal_iteratorIPS7_St6vectorIS7_SaIS7_EEEEEEE, @object
	.size	_ZN6ranges14is_invocable_vIRKNS_10indirectedIZ4mainEUlNSt7__cxx1112basic_stringIcSt11char_traitsIcESaIcEEEE_EEJRN9__gnu_cxx17__normal_iteratorIPS7_St6vectorIS7_SaIS7_EEEEEEE, 1
_ZN6ranges14is_invocable_vIRKNS_10indirectedIZ4mainEUlNSt7__cxx1112basic_stringIcSt11char_traitsIcESaIcEEEE_EEJRN9__gnu_cxx17__normal_iteratorIPS7_St6vectorIS7_SaIS7_EEEEEEE:
	.byte	1
	.type	_ZN4meta10is_trait_vIN6ranges13invoke_resultIRKNS1_10indirectedIZ4mainEUlNSt7__cxx1112basic_stringIcSt11char_traitsIcESaIcEEEE_EEJRN9__gnu_cxx17__normal_iteratorIPS9_St6vectorIS9_SaIS9_EEEEEEEEE, @object
	.size	_ZN4meta10is_trait_vIN6ranges13invoke_resultIRKNS1_10indirectedIZ4mainEUlNSt7__cxx1112basic_stringIcSt11char_traitsIcESaIcEEEE_EEJRN9__gnu_cxx17__normal_iteratorIPS9_St6vectorIS9_SaIS9_EEEEEEEEE, 1
_ZN4meta10is_trait_vIN6ranges13invoke_resultIRKNS1_10indirectedIZ4mainEUlNSt7__cxx1112basic_stringIcSt11char_traitsIcESaIcEEEE_EEJRN9__gnu_cxx17__normal_iteratorIPS9_St6vectorIS9_SaIS9_EEEEEEEEE:
	.byte	1
	.type	_ZN4meta6detail9is_trait_IN6ranges13invoke_resultIRKNS2_10indirectedIZ4mainEUlNSt7__cxx1112basic_stringIcSt11char_traitsIcESaIcEEEE_EEJRN9__gnu_cxx17__normal_iteratorIPSA_St6vectorISA_SaISA_EEEEEEEvEE, @object
	.size	_ZN4meta6detail9is_trait_IN6ranges13invoke_resultIRKNS2_10indirectedIZ4mainEUlNSt7__cxx1112basic_stringIcSt11char_traitsIcESaIcEEEE_EEJRN9__gnu_cxx17__normal_iteratorIPSA_St6vectorISA_SaISA_EEEEEEEvEE, 1
_ZN4meta6detail9is_trait_IN6ranges13invoke_resultIRKNS2_10indirectedIZ4mainEUlNSt7__cxx1112basic_stringIcSt11char_traitsIcESaIcEEEE_EEJRN9__gnu_cxx17__normal_iteratorIPSA_St6vectorISA_SaISA_EEEEEEEvEE:
	.byte	1
	.type	_ZN6ranges9invocableINS_10indirectedIZ4mainEUlNSt7__cxx1112basic_stringIcSt11char_traitsIcESaIcEEEE_EEJNS_8move_tagERN9__gnu_cxx17__normal_iteratorIPS7_St6vectorIS7_SaIS7_EEEEEEE, @object
	.size	_ZN6ranges9invocableINS_10indirectedIZ4mainEUlNSt7__cxx1112basic_stringIcSt11char_traitsIcESaIcEEEE_EEJNS_8move_tagERN9__gnu_cxx17__normal_iteratorIPS7_St6vectorIS7_SaIS7_EEEEEEE, 1
_ZN6ranges9invocableINS_10indirectedIZ4mainEUlNSt7__cxx1112basic_stringIcSt11char_traitsIcESaIcEEEE_EEJNS_8move_tagERN9__gnu_cxx17__normal_iteratorIPS7_St6vectorIS7_SaIS7_EEEEEEE:
	.byte	1
	.type	_ZN6ranges9invocableIRKNS_10indirectedIZ4mainEUlNSt7__cxx1112basic_stringIcSt11char_traitsIcESaIcEEEE_EEJNS_8move_tagERN9__gnu_cxx17__normal_iteratorIPS7_St6vectorIS7_SaIS7_EEEEEEE, @object
	.size	_ZN6ranges9invocableIRKNS_10indirectedIZ4mainEUlNSt7__cxx1112basic_stringIcSt11char_traitsIcESaIcEEEE_EEJNS_8move_tagERN9__gnu_cxx17__normal_iteratorIPS7_St6vectorIS7_SaIS7_EEEEEEE, 1
_ZN6ranges9invocableIRKNS_10indirectedIZ4mainEUlNSt7__cxx1112basic_stringIcSt11char_traitsIcESaIcEEEE_EEJNS_8move_tagERN9__gnu_cxx17__normal_iteratorIPS7_St6vectorIS7_SaIS7_EEEEEEE:
	.byte	1
	.type	_ZN6ranges9invocableIRNS_10indirectedIZ4mainEUlNSt7__cxx1112basic_stringIcSt11char_traitsIcESaIcEEEE_EEJNS_8move_tagERN9__gnu_cxx17__normal_iteratorIPS7_St6vectorIS7_SaIS7_EEEEEEE, @object
	.size	_ZN6ranges9invocableIRNS_10indirectedIZ4mainEUlNSt7__cxx1112basic_stringIcSt11char_traitsIcESaIcEEEE_EEJNS_8move_tagERN9__gnu_cxx17__normal_iteratorIPS7_St6vectorIS7_SaIS7_EEEEEEE, 1
_ZN6ranges9invocableIRNS_10indirectedIZ4mainEUlNSt7__cxx1112basic_stringIcSt11char_traitsIcESaIcEEEE_EEJNS_8move_tagERN9__gnu_cxx17__normal_iteratorIPS7_St6vectorIS7_SaIS7_EEEEEEE:
	.byte	1
	.type	_ZN6ranges22is_nothrow_invocable_vIRKNS_10indirectedIZ4mainEUlNSt7__cxx1112basic_stringIcSt11char_traitsIcESaIcEEEE_EEJNS_8move_tagERN9__gnu_cxx17__normal_iteratorIPS7_St6vectorIS7_SaIS7_EEEEEEE, @object
	.size	_ZN6ranges22is_nothrow_invocable_vIRKNS_10indirectedIZ4mainEUlNSt7__cxx1112basic_stringIcSt11char_traitsIcESaIcEEEE_EEJNS_8move_tagERN9__gnu_cxx17__normal_iteratorIPS7_St6vectorIS7_SaIS7_EEEEEEE, 1
_ZN6ranges22is_nothrow_invocable_vIRKNS_10indirectedIZ4mainEUlNSt7__cxx1112basic_stringIcSt11char_traitsIcESaIcEEEE_EEJNS_8move_tagERN9__gnu_cxx17__normal_iteratorIPS7_St6vectorIS7_SaIS7_EEEEEEE:
	.zero	1
	.type	_ZN6ranges14is_invocable_vIRKNS_10indirectedIZ4mainEUlNSt7__cxx1112basic_stringIcSt11char_traitsIcESaIcEEEE_EEJNS_8move_tagERN9__gnu_cxx17__normal_iteratorIPS7_St6vectorIS7_SaIS7_EEEEEEE, @object
	.size	_ZN6ranges14is_invocable_vIRKNS_10indirectedIZ4mainEUlNSt7__cxx1112basic_stringIcSt11char_traitsIcESaIcEEEE_EEJNS_8move_tagERN9__gnu_cxx17__normal_iteratorIPS7_St6vectorIS7_SaIS7_EEEEEEE, 1
_ZN6ranges14is_invocable_vIRKNS_10indirectedIZ4mainEUlNSt7__cxx1112basic_stringIcSt11char_traitsIcESaIcEEEE_EEJNS_8move_tagERN9__gnu_cxx17__normal_iteratorIPS7_St6vectorIS7_SaIS7_EEEEEEE:
	.byte	1
	.type	_ZN4meta10is_trait_vIN6ranges13invoke_resultIRKNS1_10indirectedIZ4mainEUlNSt7__cxx1112basic_stringIcSt11char_traitsIcESaIcEEEE_EEJNS1_8move_tagERN9__gnu_cxx17__normal_iteratorIPS9_St6vectorIS9_SaIS9_EEEEEEEEE, @object
	.size	_ZN4meta10is_trait_vIN6ranges13invoke_resultIRKNS1_10indirectedIZ4mainEUlNSt7__cxx1112basic_stringIcSt11char_traitsIcESaIcEEEE_EEJNS1_8move_tagERN9__gnu_cxx17__normal_iteratorIPS9_St6vectorIS9_SaIS9_EEEEEEEEE, 1
_ZN4meta10is_trait_vIN6ranges13invoke_resultIRKNS1_10indirectedIZ4mainEUlNSt7__cxx1112basic_stringIcSt11char_traitsIcESaIcEEEE_EEJNS1_8move_tagERN9__gnu_cxx17__normal_iteratorIPS9_St6vectorIS9_SaIS9_EEEEEEEEE:
	.byte	1
	.type	_ZN4meta6detail9is_trait_IN6ranges13invoke_resultIRKNS2_10indirectedIZ4mainEUlNSt7__cxx1112basic_stringIcSt11char_traitsIcESaIcEEEE_EEJNS2_8move_tagERN9__gnu_cxx17__normal_iteratorIPSA_St6vectorISA_SaISA_EEEEEEEvEE, @object
	.size	_ZN4meta6detail9is_trait_IN6ranges13invoke_resultIRKNS2_10indirectedIZ4mainEUlNSt7__cxx1112basic_stringIcSt11char_traitsIcESaIcEEEE_EEJNS2_8move_tagERN9__gnu_cxx17__normal_iteratorIPSA_St6vectorISA_SaISA_EEEEEEEvEE, 1
_ZN4meta6detail9is_trait_IN6ranges13invoke_resultIRKNS2_10indirectedIZ4mainEUlNSt7__cxx1112basic_stringIcSt11char_traitsIcESaIcEEEE_EEJNS2_8move_tagERN9__gnu_cxx17__normal_iteratorIPSA_St6vectorISA_SaISA_EEEEEEEvEE:
	.byte	1
	.type	_ZN6ranges6detail12is_trivial_vINS_19iter_transform_viewINS_8ref_viewISt6vectorINSt7__cxx1112basic_stringIcSt11char_traitsIcESaIcEEESaISA_EEEENS_10indirectedIZ4mainEUlSA_E_EEE7adaptorILb1EEEEE, @object
	.size	_ZN6ranges6detail12is_trivial_vINS_19iter_transform_viewINS_8ref_viewISt6vectorINSt7__cxx1112basic_stringIcSt11char_traitsIcESaIcEEESaISA_EEEENS_10indirectedIZ4mainEUlSA_E_EEE7adaptorILb1EEEEE, 1
_ZN6ranges6detail12is_trivial_vINS_19iter_transform_viewINS_8ref_viewISt6vectorINSt7__cxx1112basic_stringIcSt11char_traitsIcESaIcEEESaISA_EEEENS_10indirectedIZ4mainEUlSA_E_EEE7adaptorILb1EEEEE:
	.zero	1
	.type	_ZSt23is_trivially_copyable_vIN6ranges19iter_transform_viewINS0_8ref_viewISt6vectorINSt7__cxx1112basic_stringIcSt11char_traitsIcESaIcEEESaIS9_EEEENS0_10indirectedIZ4mainEUlS9_E_EEE7adaptorILb1EEEE, @object
	.size	_ZSt23is_trivially_copyable_vIN6ranges19iter_transform_viewINS0_8ref_viewISt6vectorINSt7__cxx1112basic_stringIcSt11char_traitsIcESaIcEEESaIS9_EEEENS0_10indirectedIZ4mainEUlS9_E_EEE7adaptorILb1EEEE, 1
_ZSt23is_trivially_copyable_vIN6ranges19iter_transform_viewINS0_8ref_viewISt6vectorINSt7__cxx1112basic_stringIcSt11char_traitsIcESaIcEEESaIS9_EEEENS0_10indirectedIZ4mainEUlS9_E_EEE7adaptorILb1EEEE:
	.byte	1
	.type	_ZSt36is_trivially_default_constructible_vIN6ranges19iter_transform_viewINS0_8ref_viewISt6vectorINSt7__cxx1112basic_stringIcSt11char_traitsIcESaIcEEESaIS9_EEEENS0_10indirectedIZ4mainEUlS9_E_EEE7adaptorILb1EEEE, @object
	.size	_ZSt36is_trivially_default_constructible_vIN6ranges19iter_transform_viewINS0_8ref_viewISt6vectorINSt7__cxx1112basic_stringIcSt11char_traitsIcESaIcEEESaIS9_EEEENS0_10indirectedIZ4mainEUlS9_E_EEE7adaptorILb1EEEE, 1
_ZSt36is_trivially_default_constructible_vIN6ranges19iter_transform_viewINS0_8ref_viewISt6vectorINSt7__cxx1112basic_stringIcSt11char_traitsIcESaIcEEESaIS9_EEEENS0_10indirectedIZ4mainEUlS9_E_EEE7adaptorILb1EEEE:
	.zero	1
	.type	_ZSt10is_final_vIN6ranges19iter_transform_viewINS0_8ref_viewISt6vectorINSt7__cxx1112basic_stringIcSt11char_traitsIcESaIcEEESaIS9_EEEENS0_10indirectedIZ4mainEUlS9_E_EEE7adaptorILb1EEEE, @object
	.size	_ZSt10is_final_vIN6ranges19iter_transform_viewINS0_8ref_viewISt6vectorINSt7__cxx1112basic_stringIcSt11char_traitsIcESaIcEEESaIS9_EEEENS0_10indirectedIZ4mainEUlS9_E_EEE7adaptorILb1EEEE, 1
_ZSt10is_final_vIN6ranges19iter_transform_viewINS0_8ref_viewISt6vectorINSt7__cxx1112basic_stringIcSt11char_traitsIcESaIcEEESaIS9_EEEENS0_10indirectedIZ4mainEUlS9_E_EEE7adaptorILb1EEEE:
	.zero	1
	.type	_ZN6ranges22is_nothrow_invocable_vIRNS_10indirectedIZ4mainEUlNSt7__cxx1112basic_stringIcSt11char_traitsIcESaIcEEEE_EEJRN9__gnu_cxx17__normal_iteratorIPS7_St6vectorIS7_SaIS7_EEEEEEE, @object
	.size	_ZN6ranges22is_nothrow_invocable_vIRNS_10indirectedIZ4mainEUlNSt7__cxx1112basic_stringIcSt11char_traitsIcESaIcEEEE_EEJRN9__gnu_cxx17__normal_iteratorIPS7_St6vectorIS7_SaIS7_EEEEEEE, 1
_ZN6ranges22is_nothrow_invocable_vIRNS_10indirectedIZ4mainEUlNSt7__cxx1112basic_stringIcSt11char_traitsIcESaIcEEEE_EEJRN9__gnu_cxx17__normal_iteratorIPS7_St6vectorIS7_SaIS7_EEEEEEE:
	.zero	1
	.type	_ZN6ranges14is_invocable_vIRNS_10indirectedIZ4mainEUlNSt7__cxx1112basic_stringIcSt11char_traitsIcESaIcEEEE_EEJRN9__gnu_cxx17__normal_iteratorIPS7_St6vectorIS7_SaIS7_EEEEEEE, @object
	.size	_ZN6ranges14is_invocable_vIRNS_10indirectedIZ4mainEUlNSt7__cxx1112basic_stringIcSt11char_traitsIcESaIcEEEE_EEJRN9__gnu_cxx17__normal_iteratorIPS7_St6vectorIS7_SaIS7_EEEEEEE, 1
_ZN6ranges14is_invocable_vIRNS_10indirectedIZ4mainEUlNSt7__cxx1112basic_stringIcSt11char_traitsIcESaIcEEEE_EEJRN9__gnu_cxx17__normal_iteratorIPS7_St6vectorIS7_SaIS7_EEEEEEE:
	.byte	1
	.type	_ZN4meta10is_trait_vIN6ranges13invoke_resultIRNS1_10indirectedIZ4mainEUlNSt7__cxx1112basic_stringIcSt11char_traitsIcESaIcEEEE_EEJRN9__gnu_cxx17__normal_iteratorIPS9_St6vectorIS9_SaIS9_EEEEEEEEE, @object
	.size	_ZN4meta10is_trait_vIN6ranges13invoke_resultIRNS1_10indirectedIZ4mainEUlNSt7__cxx1112basic_stringIcSt11char_traitsIcESaIcEEEE_EEJRN9__gnu_cxx17__normal_iteratorIPS9_St6vectorIS9_SaIS9_EEEEEEEEE, 1
_ZN4meta10is_trait_vIN6ranges13invoke_resultIRNS1_10indirectedIZ4mainEUlNSt7__cxx1112basic_stringIcSt11char_traitsIcESaIcEEEE_EEJRN9__gnu_cxx17__normal_iteratorIPS9_St6vectorIS9_SaIS9_EEEEEEEEE:
	.byte	1
	.type	_ZN4meta6detail9is_trait_IN6ranges13invoke_resultIRNS2_10indirectedIZ4mainEUlNSt7__cxx1112basic_stringIcSt11char_traitsIcESaIcEEEE_EEJRN9__gnu_cxx17__normal_iteratorIPSA_St6vectorISA_SaISA_EEEEEEEvEE, @object
	.size	_ZN4meta6detail9is_trait_IN6ranges13invoke_resultIRNS2_10indirectedIZ4mainEUlNSt7__cxx1112basic_stringIcSt11char_traitsIcESaIcEEEE_EEJRN9__gnu_cxx17__normal_iteratorIPSA_St6vectorISA_SaISA_EEEEEEEvEE, 1
_ZN4meta6detail9is_trait_IN6ranges13invoke_resultIRNS2_10indirectedIZ4mainEUlNSt7__cxx1112basic_stringIcSt11char_traitsIcESaIcEEEE_EEJRN9__gnu_cxx17__normal_iteratorIPSA_St6vectorISA_SaISA_EEEEEEEvEE:
	.byte	1
	.text
	.align 2
	.type	_ZNR6ranges15semiregular_boxINS_10indirectedIZ4mainEUlNSt7__cxx1112basic_stringIcSt11char_traitsIcESaIcEEEE_EEEclIJRN9__gnu_cxx17__normal_iteratorIPS7_St6vectorIS7_SaIS7_EEEEELb1ELi0EEEDcDpOT_, @function
_ZNR6ranges15semiregular_boxINS_10indirectedIZ4mainEUlNSt7__cxx1112basic_stringIcSt11char_traitsIcESaIcEEEE_EEEclIJRN9__gnu_cxx17__normal_iteratorIPS7_St6vectorIS7_SaIS7_EEEEELb1ELi0EEEDcDpOT_:
.LFB9296:
	.cfi_startproc
	pushq	%rbp
	.cfi_def_cfa_offset 16
	.cfi_offset 6, -16
	movq	%rsp, %rbp
	.cfi_def_cfa_register 6
	subq	$48, %rsp
	movq	%rdi, -24(%rbp)
	movq	%rsi, -32(%rbp)
	movq	%rdx, -40(%rbp)
	movq	%fs:40, %rax
	movq	%rax, -8(%rbp)
	xorl	%eax, %eax
	movq	-32(%rbp), %rdx
	movq	-24(%rbp), %rax
	movq	-40(%rbp), %rcx
	leaq	_ZN6ranges6invokeE(%rip), %rsi
	movq	%rax, %rdi
	call	_ZNK6ranges9invoke_fnclIRNS_10indirectedIZ4mainEUlNSt7__cxx1112basic_stringIcSt11char_traitsIcESaIcEEEE_EEJRN9__gnu_cxx17__normal_iteratorIPS8_St6vectorIS8_SaIS8_EEEEEEEDTclcvOT_fp_spcvOT0_fp0_EESL_DpSN_
	movq	-8(%rbp), %rax
	subq	%fs:40, %rax
	je	.L50
	call	__stack_chk_fail@PLT
.L50:
	movq	-24(%rbp), %rax
	leave
	.cfi_def_cfa 7, 8
	ret
	.cfi_endproc
.LFE9296:
	.size	_ZNR6ranges15semiregular_boxINS_10indirectedIZ4mainEUlNSt7__cxx1112basic_stringIcSt11char_traitsIcESaIcEEEE_EEEclIJRN9__gnu_cxx17__normal_iteratorIPS7_St6vectorIS7_SaIS7_EEEEELb1ELi0EEEDcDpOT_, .-_ZNR6ranges15semiregular_boxINS_10indirectedIZ4mainEUlNSt7__cxx1112basic_stringIcSt11char_traitsIcESaIcEEEE_EEEclIJRN9__gnu_cxx17__normal_iteratorIPS7_St6vectorIS7_SaIS7_EEEEELb1ELi0EEEDcDpOT_
	.section	.rodata
	.type	_ZN6ranges22is_nothrow_invocable_vIRNS_10indirectedIZ4mainEUlNSt7__cxx1112basic_stringIcSt11char_traitsIcESaIcEEEE_EEJNS_8move_tagERN9__gnu_cxx17__normal_iteratorIPS7_St6vectorIS7_SaIS7_EEEEEEE, @object
	.size	_ZN6ranges22is_nothrow_invocable_vIRNS_10indirectedIZ4mainEUlNSt7__cxx1112basic_stringIcSt11char_traitsIcESaIcEEEE_EEJNS_8move_tagERN9__gnu_cxx17__normal_iteratorIPS7_St6vectorIS7_SaIS7_EEEEEEE, 1
_ZN6ranges22is_nothrow_invocable_vIRNS_10indirectedIZ4mainEUlNSt7__cxx1112basic_stringIcSt11char_traitsIcESaIcEEEE_EEJNS_8move_tagERN9__gnu_cxx17__normal_iteratorIPS7_St6vectorIS7_SaIS7_EEEEEEE:
	.zero	1
	.type	_ZN6ranges14is_invocable_vIRNS_10indirectedIZ4mainEUlNSt7__cxx1112basic_stringIcSt11char_traitsIcESaIcEEEE_EEJNS_8move_tagERN9__gnu_cxx17__normal_iteratorIPS7_St6vectorIS7_SaIS7_EEEEEEE, @object
	.size	_ZN6ranges14is_invocable_vIRNS_10indirectedIZ4mainEUlNSt7__cxx1112basic_stringIcSt11char_traitsIcESaIcEEEE_EEJNS_8move_tagERN9__gnu_cxx17__normal_iteratorIPS7_St6vectorIS7_SaIS7_EEEEEEE, 1
_ZN6ranges14is_invocable_vIRNS_10indirectedIZ4mainEUlNSt7__cxx1112basic_stringIcSt11char_traitsIcESaIcEEEE_EEJNS_8move_tagERN9__gnu_cxx17__normal_iteratorIPS7_St6vectorIS7_SaIS7_EEEEEEE:
	.byte	1
	.type	_ZN4meta10is_trait_vIN6ranges13invoke_resultIRNS1_10indirectedIZ4mainEUlNSt7__cxx1112basic_stringIcSt11char_traitsIcESaIcEEEE_EEJNS1_8move_tagERN9__gnu_cxx17__normal_iteratorIPS9_St6vectorIS9_SaIS9_EEEEEEEEE, @object
	.size	_ZN4meta10is_trait_vIN6ranges13invoke_resultIRNS1_10indirectedIZ4mainEUlNSt7__cxx1112basic_stringIcSt11char_traitsIcESaIcEEEE_EEJNS1_8move_tagERN9__gnu_cxx17__normal_iteratorIPS9_St6vectorIS9_SaIS9_EEEEEEEEE, 1
_ZN4meta10is_trait_vIN6ranges13invoke_resultIRNS1_10indirectedIZ4mainEUlNSt7__cxx1112basic_stringIcSt11char_traitsIcESaIcEEEE_EEJNS1_8move_tagERN9__gnu_cxx17__normal_iteratorIPS9_St6vectorIS9_SaIS9_EEEEEEEEE:
	.byte	1
	.type	_ZN4meta6detail9is_trait_IN6ranges13invoke_resultIRNS2_10indirectedIZ4mainEUlNSt7__cxx1112basic_stringIcSt11char_traitsIcESaIcEEEE_EEJNS2_8move_tagERN9__gnu_cxx17__normal_iteratorIPSA_St6vectorISA_SaISA_EEEEEEEvEE, @object
	.size	_ZN4meta6detail9is_trait_IN6ranges13invoke_resultIRNS2_10indirectedIZ4mainEUlNSt7__cxx1112basic_stringIcSt11char_traitsIcESaIcEEEE_EEJNS2_8move_tagERN9__gnu_cxx17__normal_iteratorIPSA_St6vectorISA_SaISA_EEEEEEEvEE, 1
_ZN4meta6detail9is_trait_IN6ranges13invoke_resultIRNS2_10indirectedIZ4mainEUlNSt7__cxx1112basic_stringIcSt11char_traitsIcESaIcEEEE_EEJNS2_8move_tagERN9__gnu_cxx17__normal_iteratorIPSA_St6vectorISA_SaISA_EEEEEEEvEE:
	.byte	1
	.type	_ZN6ranges6detail12is_trivial_vINS_19iter_transform_viewINS_8ref_viewISt6vectorINSt7__cxx1112basic_stringIcSt11char_traitsIcESaIcEEESaISA_EEEENS_10indirectedIZ4mainEUlSA_E_EEE7adaptorILb0EEEEE, @object
	.size	_ZN6ranges6detail12is_trivial_vINS_19iter_transform_viewINS_8ref_viewISt6vectorINSt7__cxx1112basic_stringIcSt11char_traitsIcESaIcEEESaISA_EEEENS_10indirectedIZ4mainEUlSA_E_EEE7adaptorILb0EEEEE, 1
_ZN6ranges6detail12is_trivial_vINS_19iter_transform_viewINS_8ref_viewISt6vectorINSt7__cxx1112basic_stringIcSt11char_traitsIcESaIcEEESaISA_EEEENS_10indirectedIZ4mainEUlSA_E_EEE7adaptorILb0EEEEE:
	.zero	1
	.type	_ZSt23is_trivially_copyable_vIN6ranges19iter_transform_viewINS0_8ref_viewISt6vectorINSt7__cxx1112basic_stringIcSt11char_traitsIcESaIcEEESaIS9_EEEENS0_10indirectedIZ4mainEUlS9_E_EEE7adaptorILb0EEEE, @object
	.size	_ZSt23is_trivially_copyable_vIN6ranges19iter_transform_viewINS0_8ref_viewISt6vectorINSt7__cxx1112basic_stringIcSt11char_traitsIcESaIcEEESaIS9_EEEENS0_10indirectedIZ4mainEUlS9_E_EEE7adaptorILb0EEEE, 1
_ZSt23is_trivially_copyable_vIN6ranges19iter_transform_viewINS0_8ref_viewISt6vectorINSt7__cxx1112basic_stringIcSt11char_traitsIcESaIcEEESaIS9_EEEENS0_10indirectedIZ4mainEUlS9_E_EEE7adaptorILb0EEEE:
	.byte	1
	.type	_ZSt36is_trivially_default_constructible_vIN6ranges19iter_transform_viewINS0_8ref_viewISt6vectorINSt7__cxx1112basic_stringIcSt11char_traitsIcESaIcEEESaIS9_EEEENS0_10indirectedIZ4mainEUlS9_E_EEE7adaptorILb0EEEE, @object
	.size	_ZSt36is_trivially_default_constructible_vIN6ranges19iter_transform_viewINS0_8ref_viewISt6vectorINSt7__cxx1112basic_stringIcSt11char_traitsIcESaIcEEESaIS9_EEEENS0_10indirectedIZ4mainEUlS9_E_EEE7adaptorILb0EEEE, 1
_ZSt36is_trivially_default_constructible_vIN6ranges19iter_transform_viewINS0_8ref_viewISt6vectorINSt7__cxx1112basic_stringIcSt11char_traitsIcESaIcEEESaIS9_EEEENS0_10indirectedIZ4mainEUlS9_E_EEE7adaptorILb0EEEE:
	.zero	1
	.type	_ZSt10is_final_vIN6ranges19iter_transform_viewINS0_8ref_viewISt6vectorINSt7__cxx1112basic_stringIcSt11char_traitsIcESaIcEEESaIS9_EEEENS0_10indirectedIZ4mainEUlS9_E_EEE7adaptorILb0EEEE, @object
	.size	_ZSt10is_final_vIN6ranges19iter_transform_viewINS0_8ref_viewISt6vectorINSt7__cxx1112basic_stringIcSt11char_traitsIcESaIcEEESaIS9_EEEENS0_10indirectedIZ4mainEUlS9_E_EEE7adaptorILb0EEEE, 1
_ZSt10is_final_vIN6ranges19iter_transform_viewINS0_8ref_viewISt6vectorINSt7__cxx1112basic_stringIcSt11char_traitsIcESaIcEEESaIS9_EEEENS0_10indirectedIZ4mainEUlS9_E_EEE7adaptorILb0EEEE:
	.zero	1
	.type	_ZN6ranges6detail15readable_cursorINS_14adaptor_cursorIN9__gnu_cxx17__normal_iteratorIPNSt7__cxx1112basic_stringIcSt11char_traitsIcESaIcEEESt6vectorISA_SaISA_EEEENS_19iter_transform_viewINS_8ref_viewISE_EENS_10indirectedIZ4mainEUlSA_E_EEE7adaptorILb0EEEEEEE, @object
	.size	_ZN6ranges6detail15readable_cursorINS_14adaptor_cursorIN9__gnu_cxx17__normal_iteratorIPNSt7__cxx1112basic_stringIcSt11char_traitsIcESaIcEEESt6vectorISA_SaISA_EEEENS_19iter_transform_viewINS_8ref_viewISE_EENS_10indirectedIZ4mainEUlSA_E_EEE7adaptorILb0EEEEEEE, 1
_ZN6ranges6detail15readable_cursorINS_14adaptor_cursorIN9__gnu_cxx17__normal_iteratorIPNSt7__cxx1112basic_stringIcSt11char_traitsIcESaIcEEESt6vectorISA_SaISA_EEEENS_19iter_transform_viewINS_8ref_viewISE_EENS_10indirectedIZ4mainEUlSA_E_EEE7adaptorILb0EEEEEEE:
	.byte	1
	.type	_ZN6ranges6detail18cpp17_input_cursorINS_14adaptor_cursorIN9__gnu_cxx17__normal_iteratorIPNSt7__cxx1112basic_stringIcSt11char_traitsIcESaIcEEESt6vectorISA_SaISA_EEEENS_19iter_transform_viewINS_8ref_viewISE_EENS_10indirectedIZ4mainEUlSA_E_EEE7adaptorILb0EEEEEEE, @object
	.size	_ZN6ranges6detail18cpp17_input_cursorINS_14adaptor_cursorIN9__gnu_cxx17__normal_iteratorIPNSt7__cxx1112basic_stringIcSt11char_traitsIcESaIcEEESt6vectorISA_SaISA_EEEENS_19iter_transform_viewINS_8ref_viewISE_EENS_10indirectedIZ4mainEUlSA_E_EEE7adaptorILb0EEEEEEE, 1
_ZN6ranges6detail18cpp17_input_cursorINS_14adaptor_cursorIN9__gnu_cxx17__normal_iteratorIPNSt7__cxx1112basic_stringIcSt11char_traitsIcESaIcEEESt6vectorISA_SaISA_EEEENS_19iter_transform_viewINS_8ref_viewISE_EENS_10indirectedIZ4mainEUlSA_E_EEE7adaptorILb0EEEEEEE:
	.byte	1
	.type	_ZN6ranges6detail12input_cursorINS_14adaptor_cursorIN9__gnu_cxx17__normal_iteratorIPNSt7__cxx1112basic_stringIcSt11char_traitsIcESaIcEEESt6vectorISA_SaISA_EEEENS_19iter_transform_viewINS_8ref_viewISE_EENS_10indirectedIZ4mainEUlSA_E_EEE7adaptorILb0EEEEEEE, @object
	.size	_ZN6ranges6detail12input_cursorINS_14adaptor_cursorIN9__gnu_cxx17__normal_iteratorIPNSt7__cxx1112basic_stringIcSt11char_traitsIcESaIcEEESt6vectorISA_SaISA_EEEENS_19iter_transform_viewINS_8ref_viewISE_EENS_10indirectedIZ4mainEUlSA_E_EEE7adaptorILb0EEEEEEE, 1
_ZN6ranges6detail12input_cursorINS_14adaptor_cursorIN9__gnu_cxx17__normal_iteratorIPNSt7__cxx1112basic_stringIcSt11char_traitsIcESaIcEEESt6vectorISA_SaISA_EEEENS_19iter_transform_viewINS_8ref_viewISE_EENS_10indirectedIZ4mainEUlSA_E_EEE7adaptorILb0EEEEEEE:
	.byte	1
	.type	_ZN6ranges6detail6cursorINS_14adaptor_cursorIN9__gnu_cxx17__normal_iteratorIPNSt7__cxx1112basic_stringIcSt11char_traitsIcESaIcEEESt6vectorISA_SaISA_EEEENS_19iter_transform_viewINS_8ref_viewISE_EENS_10indirectedIZ4mainEUlSA_E_EEE7adaptorILb0EEEEEEE, @object
	.size	_ZN6ranges6detail6cursorINS_14adaptor_cursorIN9__gnu_cxx17__normal_iteratorIPNSt7__cxx1112basic_stringIcSt11char_traitsIcESaIcEEESt6vectorISA_SaISA_EEEENS_19iter_transform_viewINS_8ref_viewISE_EENS_10indirectedIZ4mainEUlSA_E_EEE7adaptorILb0EEEEEEE, 1
_ZN6ranges6detail6cursorINS_14adaptor_cursorIN9__gnu_cxx17__normal_iteratorIPNSt7__cxx1112basic_stringIcSt11char_traitsIcESaIcEEESt6vectorISA_SaISA_EEEENS_19iter_transform_viewINS_8ref_viewISE_EENS_10indirectedIZ4mainEUlSA_E_EEE7adaptorILb0EEEEEEE:
	.byte	1
	.type	_ZN8concepts4defs11semiregularIN6ranges14adaptor_cursorIN9__gnu_cxx17__normal_iteratorIPNSt7__cxx1112basic_stringIcSt11char_traitsIcESaIcEEESt6vectorISB_SaISB_EEEENS2_19iter_transform_viewINS2_8ref_viewISF_EENS2_10indirectedIZ4mainEUlSB_E_EEE7adaptorILb0EEEEEEE, @object
	.size	_ZN8concepts4defs11semiregularIN6ranges14adaptor_cursorIN9__gnu_cxx17__normal_iteratorIPNSt7__cxx1112basic_stringIcSt11char_traitsIcESaIcEEESt6vectorISB_SaISB_EEEENS2_19iter_transform_viewINS2_8ref_viewISF_EENS2_10indirectedIZ4mainEUlSB_E_EEE7adaptorILb0EEEEEEE, 1
_ZN8concepts4defs11semiregularIN6ranges14adaptor_cursorIN9__gnu_cxx17__normal_iteratorIPNSt7__cxx1112basic_stringIcSt11char_traitsIcESaIcEEESt6vectorISB_SaISB_EEEENS2_19iter_transform_viewINS2_8ref_viewISF_EENS2_10indirectedIZ4mainEUlSB_E_EEE7adaptorILb0EEEEEEE:
	.byte	1
	.type	_ZN8concepts4defs8copyableIN6ranges14adaptor_cursorIN9__gnu_cxx17__normal_iteratorIPNSt7__cxx1112basic_stringIcSt11char_traitsIcESaIcEEESt6vectorISB_SaISB_EEEENS2_19iter_transform_viewINS2_8ref_viewISF_EENS2_10indirectedIZ4mainEUlSB_E_EEE7adaptorILb0EEEEEEE, @object
	.size	_ZN8concepts4defs8copyableIN6ranges14adaptor_cursorIN9__gnu_cxx17__normal_iteratorIPNSt7__cxx1112basic_stringIcSt11char_traitsIcESaIcEEESt6vectorISB_SaISB_EEEENS2_19iter_transform_viewINS2_8ref_viewISF_EENS2_10indirectedIZ4mainEUlSB_E_EEE7adaptorILb0EEEEEEE, 1
_ZN8concepts4defs8copyableIN6ranges14adaptor_cursorIN9__gnu_cxx17__normal_iteratorIPNSt7__cxx1112basic_stringIcSt11char_traitsIcESaIcEEESt6vectorISB_SaISB_EEEENS2_19iter_transform_viewINS2_8ref_viewISF_EENS2_10indirectedIZ4mainEUlSB_E_EEE7adaptorILb0EEEEEEE:
	.byte	1
	.type	_ZN8concepts4defs18copy_constructibleIN6ranges14adaptor_cursorIN9__gnu_cxx17__normal_iteratorIPNSt7__cxx1112basic_stringIcSt11char_traitsIcESaIcEEESt6vectorISB_SaISB_EEEENS2_19iter_transform_viewINS2_8ref_viewISF_EENS2_10indirectedIZ4mainEUlSB_E_EEE7adaptorILb0EEEEEEE, @object
	.size	_ZN8concepts4defs18copy_constructibleIN6ranges14adaptor_cursorIN9__gnu_cxx17__normal_iteratorIPNSt7__cxx1112basic_stringIcSt11char_traitsIcESaIcEEESt6vectorISB_SaISB_EEEENS2_19iter_transform_viewINS2_8ref_viewISF_EENS2_10indirectedIZ4mainEUlSB_E_EEE7adaptorILb0EEEEEEE, 1
_ZN8concepts4defs18copy_constructibleIN6ranges14adaptor_cursorIN9__gnu_cxx17__normal_iteratorIPNSt7__cxx1112basic_stringIcSt11char_traitsIcESaIcEEESt6vectorISB_SaISB_EEEENS2_19iter_transform_viewINS2_8ref_viewISF_EENS2_10indirectedIZ4mainEUlSB_E_EEE7adaptorILb0EEEEEEE:
	.byte	1
	.type	_ZN8concepts4defs18move_constructibleIN6ranges14adaptor_cursorIN9__gnu_cxx17__normal_iteratorIPNSt7__cxx1112basic_stringIcSt11char_traitsIcESaIcEEESt6vectorISB_SaISB_EEEENS2_19iter_transform_viewINS2_8ref_viewISF_EENS2_10indirectedIZ4mainEUlSB_E_EEE7adaptorILb0EEEEEEE, @object
	.size	_ZN8concepts4defs18move_constructibleIN6ranges14adaptor_cursorIN9__gnu_cxx17__normal_iteratorIPNSt7__cxx1112basic_stringIcSt11char_traitsIcESaIcEEESt6vectorISB_SaISB_EEEENS2_19iter_transform_viewINS2_8ref_viewISF_EENS2_10indirectedIZ4mainEUlSB_E_EEE7adaptorILb0EEEEEEE, 1
_ZN8concepts4defs18move_constructibleIN6ranges14adaptor_cursorIN9__gnu_cxx17__normal_iteratorIPNSt7__cxx1112basic_stringIcSt11char_traitsIcESaIcEEESt6vectorISB_SaISB_EEEENS2_19iter_transform_viewINS2_8ref_viewISF_EENS2_10indirectedIZ4mainEUlSB_E_EEE7adaptorILb0EEEEEEE:
	.byte	1
	.type	_ZN8concepts4defs18constructible_fromIN6ranges14adaptor_cursorIN9__gnu_cxx17__normal_iteratorIPNSt7__cxx1112basic_stringIcSt11char_traitsIcESaIcEEESt6vectorISB_SaISB_EEEENS2_19iter_transform_viewINS2_8ref_viewISF_EENS2_10indirectedIZ4mainEUlSB_E_EEE7adaptorILb0EEEEEJSQ_EEE, @object
	.size	_ZN8concepts4defs18constructible_fromIN6ranges14adaptor_cursorIN9__gnu_cxx17__normal_iteratorIPNSt7__cxx1112basic_stringIcSt11char_traitsIcESaIcEEESt6vectorISB_SaISB_EEEENS2_19iter_transform_viewINS2_8ref_viewISF_EENS2_10indirectedIZ4mainEUlSB_E_EEE7adaptorILb0EEEEEJSQ_EEE, 1
_ZN8concepts4defs18constructible_fromIN6ranges14adaptor_cursorIN9__gnu_cxx17__normal_iteratorIPNSt7__cxx1112basic_stringIcSt11char_traitsIcESaIcEEESt6vectorISB_SaISB_EEEENS2_19iter_transform_viewINS2_8ref_viewISF_EENS2_10indirectedIZ4mainEUlSB_E_EEE7adaptorILb0EEEEEJSQ_EEE:
	.byte	1
	.type	_ZN8concepts4defs12destructibleIN6ranges14adaptor_cursorIN9__gnu_cxx17__normal_iteratorIPNSt7__cxx1112basic_stringIcSt11char_traitsIcESaIcEEESt6vectorISB_SaISB_EEEENS2_19iter_transform_viewINS2_8ref_viewISF_EENS2_10indirectedIZ4mainEUlSB_E_EEE7adaptorILb0EEEEEEE, @object
	.size	_ZN8concepts4defs12destructibleIN6ranges14adaptor_cursorIN9__gnu_cxx17__normal_iteratorIPNSt7__cxx1112basic_stringIcSt11char_traitsIcESaIcEEESt6vectorISB_SaISB_EEEENS2_19iter_transform_viewINS2_8ref_viewISF_EENS2_10indirectedIZ4mainEUlSB_E_EEE7adaptorILb0EEEEEEE, 1
_ZN8concepts4defs12destructibleIN6ranges14adaptor_cursorIN9__gnu_cxx17__normal_iteratorIPNSt7__cxx1112basic_stringIcSt11char_traitsIcESaIcEEESt6vectorISB_SaISB_EEEENS2_19iter_transform_viewINS2_8ref_viewISF_EENS2_10indirectedIZ4mainEUlSB_E_EEE7adaptorILb0EEEEEEE:
	.byte	1
	.type	_ZN8concepts4defs14convertible_toIN6ranges14adaptor_cursorIN9__gnu_cxx17__normal_iteratorIPNSt7__cxx1112basic_stringIcSt11char_traitsIcESaIcEEESt6vectorISB_SaISB_EEEENS2_19iter_transform_viewINS2_8ref_viewISF_EENS2_10indirectedIZ4mainEUlSB_E_EEE7adaptorILb0EEEEESQ_EE, @object
	.size	_ZN8concepts4defs14convertible_toIN6ranges14adaptor_cursorIN9__gnu_cxx17__normal_iteratorIPNSt7__cxx1112basic_stringIcSt11char_traitsIcESaIcEEESt6vectorISB_SaISB_EEEENS2_19iter_transform_viewINS2_8ref_viewISF_EENS2_10indirectedIZ4mainEUlSB_E_EEE7adaptorILb0EEEEESQ_EE, 1
_ZN8concepts4defs14convertible_toIN6ranges14adaptor_cursorIN9__gnu_cxx17__normal_iteratorIPNSt7__cxx1112basic_stringIcSt11char_traitsIcESaIcEEESt6vectorISB_SaISB_EEEENS2_19iter_transform_viewINS2_8ref_viewISF_EENS2_10indirectedIZ4mainEUlSB_E_EEE7adaptorILb0EEEEESQ_EE:
	.byte	1
	.type	_ZN8concepts4defs25implicitly_convertible_toIN6ranges14adaptor_cursorIN9__gnu_cxx17__normal_iteratorIPNSt7__cxx1112basic_stringIcSt11char_traitsIcESaIcEEESt6vectorISB_SaISB_EEEENS2_19iter_transform_viewINS2_8ref_viewISF_EENS2_10indirectedIZ4mainEUlSB_E_EEE7adaptorILb0EEEEESQ_EE, @object
	.size	_ZN8concepts4defs25implicitly_convertible_toIN6ranges14adaptor_cursorIN9__gnu_cxx17__normal_iteratorIPNSt7__cxx1112basic_stringIcSt11char_traitsIcESaIcEEESt6vectorISB_SaISB_EEEENS2_19iter_transform_viewINS2_8ref_viewISF_EENS2_10indirectedIZ4mainEUlSB_E_EEE7adaptorILb0EEEEESQ_EE, 1
_ZN8concepts4defs25implicitly_convertible_toIN6ranges14adaptor_cursorIN9__gnu_cxx17__normal_iteratorIPNSt7__cxx1112basic_stringIcSt11char_traitsIcESaIcEEESt6vectorISB_SaISB_EEEENS2_19iter_transform_viewINS2_8ref_viewISF_EENS2_10indirectedIZ4mainEUlSB_E_EEE7adaptorILb0EEEEESQ_EE:
	.byte	1
	.type	_ZN8concepts4defs25explicitly_convertible_toIN6ranges14adaptor_cursorIN9__gnu_cxx17__normal_iteratorIPNSt7__cxx1112basic_stringIcSt11char_traitsIcESaIcEEESt6vectorISB_SaISB_EEEENS2_19iter_transform_viewINS2_8ref_viewISF_EENS2_10indirectedIZ4mainEUlSB_E_EEE7adaptorILb0EEEEESQ_EE, @object
	.size	_ZN8concepts4defs25explicitly_convertible_toIN6ranges14adaptor_cursorIN9__gnu_cxx17__normal_iteratorIPNSt7__cxx1112basic_stringIcSt11char_traitsIcESaIcEEESt6vectorISB_SaISB_EEEENS2_19iter_transform_viewINS2_8ref_viewISF_EENS2_10indirectedIZ4mainEUlSB_E_EEE7adaptorILb0EEEEESQ_EE, 1
_ZN8concepts4defs25explicitly_convertible_toIN6ranges14adaptor_cursorIN9__gnu_cxx17__normal_iteratorIPNSt7__cxx1112basic_stringIcSt11char_traitsIcESaIcEEESt6vectorISB_SaISB_EEEENS2_19iter_transform_viewINS2_8ref_viewISF_EENS2_10indirectedIZ4mainEUlSB_E_EEE7adaptorILb0EEEEESQ_EE:
	.byte	1
	.type	_ZN8concepts4defs18constructible_fromIN6ranges14adaptor_cursorIN9__gnu_cxx17__normal_iteratorIPNSt7__cxx1112basic_stringIcSt11char_traitsIcESaIcEEESt6vectorISB_SaISB_EEEENS2_19iter_transform_viewINS2_8ref_viewISF_EENS2_10indirectedIZ4mainEUlSB_E_EEE7adaptorILb0EEEEEJRSQ_EEE, @object
	.size	_ZN8concepts4defs18constructible_fromIN6ranges14adaptor_cursorIN9__gnu_cxx17__normal_iteratorIPNSt7__cxx1112basic_stringIcSt11char_traitsIcESaIcEEESt6vectorISB_SaISB_EEEENS2_19iter_transform_viewINS2_8ref_viewISF_EENS2_10indirectedIZ4mainEUlSB_E_EEE7adaptorILb0EEEEEJRSQ_EEE, 1
_ZN8concepts4defs18constructible_fromIN6ranges14adaptor_cursorIN9__gnu_cxx17__normal_iteratorIPNSt7__cxx1112basic_stringIcSt11char_traitsIcESaIcEEESt6vectorISB_SaISB_EEEENS2_19iter_transform_viewINS2_8ref_viewISF_EENS2_10indirectedIZ4mainEUlSB_E_EEE7adaptorILb0EEEEEJRSQ_EEE:
	.byte	1
	.type	_ZN8concepts4defs7same_asIN6ranges14adaptor_cursorIN9__gnu_cxx17__normal_iteratorIPNSt7__cxx1112basic_stringIcSt11char_traitsIcESaIcEEESt6vectorISB_SaISB_EEEENS2_19iter_transform_viewINS2_8ref_viewISF_EENS2_10indirectedIZ4mainEUlSB_E_EEE7adaptorILb0EEEEESQ_EE, @object
	.size	_ZN8concepts4defs7same_asIN6ranges14adaptor_cursorIN9__gnu_cxx17__normal_iteratorIPNSt7__cxx1112basic_stringIcSt11char_traitsIcESaIcEEESt6vectorISB_SaISB_EEEENS2_19iter_transform_viewINS2_8ref_viewISF_EENS2_10indirectedIZ4mainEUlSB_E_EEE7adaptorILb0EEEEESQ_EE, 1
_ZN8concepts4defs7same_asIN6ranges14adaptor_cursorIN9__gnu_cxx17__normal_iteratorIPNSt7__cxx1112basic_stringIcSt11char_traitsIcESaIcEEESt6vectorISB_SaISB_EEEENS2_19iter_transform_viewINS2_8ref_viewISF_EENS2_10indirectedIZ4mainEUlSB_E_EEE7adaptorILb0EEEEESQ_EE:
	.byte	1
	.type	_ZN8concepts4defs18constructible_fromIN6ranges14adaptor_cursorIN9__gnu_cxx17__normal_iteratorIPNSt7__cxx1112basic_stringIcSt11char_traitsIcESaIcEEESt6vectorISB_SaISB_EEEENS2_19iter_transform_viewINS2_8ref_viewISF_EENS2_10indirectedIZ4mainEUlSB_E_EEE7adaptorILb0EEEEEJRKSQ_EEE, @object
	.size	_ZN8concepts4defs18constructible_fromIN6ranges14adaptor_cursorIN9__gnu_cxx17__normal_iteratorIPNSt7__cxx1112basic_stringIcSt11char_traitsIcESaIcEEESt6vectorISB_SaISB_EEEENS2_19iter_transform_viewINS2_8ref_viewISF_EENS2_10indirectedIZ4mainEUlSB_E_EEE7adaptorILb0EEEEEJRKSQ_EEE, 1
_ZN8concepts4defs18constructible_fromIN6ranges14adaptor_cursorIN9__gnu_cxx17__normal_iteratorIPNSt7__cxx1112basic_stringIcSt11char_traitsIcESaIcEEESt6vectorISB_SaISB_EEEENS2_19iter_transform_viewINS2_8ref_viewISF_EENS2_10indirectedIZ4mainEUlSB_E_EEE7adaptorILb0EEEEEJRKSQ_EEE:
	.byte	1
	.type	_ZN8concepts4defs18constructible_fromIN6ranges14adaptor_cursorIN9__gnu_cxx17__normal_iteratorIPNSt7__cxx1112basic_stringIcSt11char_traitsIcESaIcEEESt6vectorISB_SaISB_EEEENS2_19iter_transform_viewINS2_8ref_viewISF_EENS2_10indirectedIZ4mainEUlSB_E_EEE7adaptorILb0EEEEEJKSQ_EEE, @object
	.size	_ZN8concepts4defs18constructible_fromIN6ranges14adaptor_cursorIN9__gnu_cxx17__normal_iteratorIPNSt7__cxx1112basic_stringIcSt11char_traitsIcESaIcEEESt6vectorISB_SaISB_EEEENS2_19iter_transform_viewINS2_8ref_viewISF_EENS2_10indirectedIZ4mainEUlSB_E_EEE7adaptorILb0EEEEEJKSQ_EEE, 1
_ZN8concepts4defs18constructible_fromIN6ranges14adaptor_cursorIN9__gnu_cxx17__normal_iteratorIPNSt7__cxx1112basic_stringIcSt11char_traitsIcESaIcEEESt6vectorISB_SaISB_EEEENS2_19iter_transform_viewINS2_8ref_viewISF_EENS2_10indirectedIZ4mainEUlSB_E_EEE7adaptorILb0EEEEEJKSQ_EEE:
	.byte	1
	.type	_ZN8concepts4defs14convertible_toIRN6ranges14adaptor_cursorIN9__gnu_cxx17__normal_iteratorIPNSt7__cxx1112basic_stringIcSt11char_traitsIcESaIcEEESt6vectorISB_SaISB_EEEENS2_19iter_transform_viewINS2_8ref_viewISF_EENS2_10indirectedIZ4mainEUlSB_E_EEE7adaptorILb0EEEEESQ_EE, @object
	.size	_ZN8concepts4defs14convertible_toIRN6ranges14adaptor_cursorIN9__gnu_cxx17__normal_iteratorIPNSt7__cxx1112basic_stringIcSt11char_traitsIcESaIcEEESt6vectorISB_SaISB_EEEENS2_19iter_transform_viewINS2_8ref_viewISF_EENS2_10indirectedIZ4mainEUlSB_E_EEE7adaptorILb0EEEEESQ_EE, 1
_ZN8concepts4defs14convertible_toIRN6ranges14adaptor_cursorIN9__gnu_cxx17__normal_iteratorIPNSt7__cxx1112basic_stringIcSt11char_traitsIcESaIcEEESt6vectorISB_SaISB_EEEENS2_19iter_transform_viewINS2_8ref_viewISF_EENS2_10indirectedIZ4mainEUlSB_E_EEE7adaptorILb0EEEEESQ_EE:
	.byte	1
	.type	_ZN8concepts4defs25implicitly_convertible_toIRN6ranges14adaptor_cursorIN9__gnu_cxx17__normal_iteratorIPNSt7__cxx1112basic_stringIcSt11char_traitsIcESaIcEEESt6vectorISB_SaISB_EEEENS2_19iter_transform_viewINS2_8ref_viewISF_EENS2_10indirectedIZ4mainEUlSB_E_EEE7adaptorILb0EEEEESQ_EE, @object
	.size	_ZN8concepts4defs25implicitly_convertible_toIRN6ranges14adaptor_cursorIN9__gnu_cxx17__normal_iteratorIPNSt7__cxx1112basic_stringIcSt11char_traitsIcESaIcEEESt6vectorISB_SaISB_EEEENS2_19iter_transform_viewINS2_8ref_viewISF_EENS2_10indirectedIZ4mainEUlSB_E_EEE7adaptorILb0EEEEESQ_EE, 1
_ZN8concepts4defs25implicitly_convertible_toIRN6ranges14adaptor_cursorIN9__gnu_cxx17__normal_iteratorIPNSt7__cxx1112basic_stringIcSt11char_traitsIcESaIcEEESt6vectorISB_SaISB_EEEENS2_19iter_transform_viewINS2_8ref_viewISF_EENS2_10indirectedIZ4mainEUlSB_E_EEE7adaptorILb0EEEEESQ_EE:
	.byte	1
	.type	_ZN8concepts4defs25explicitly_convertible_toIRN6ranges14adaptor_cursorIN9__gnu_cxx17__normal_iteratorIPNSt7__cxx1112basic_stringIcSt11char_traitsIcESaIcEEESt6vectorISB_SaISB_EEEENS2_19iter_transform_viewINS2_8ref_viewISF_EENS2_10indirectedIZ4mainEUlSB_E_EEE7adaptorILb0EEEEESQ_EE, @object
	.size	_ZN8concepts4defs25explicitly_convertible_toIRN6ranges14adaptor_cursorIN9__gnu_cxx17__normal_iteratorIPNSt7__cxx1112basic_stringIcSt11char_traitsIcESaIcEEESt6vectorISB_SaISB_EEEENS2_19iter_transform_viewINS2_8ref_viewISF_EENS2_10indirectedIZ4mainEUlSB_E_EEE7adaptorILb0EEEEESQ_EE, 1
_ZN8concepts4defs25explicitly_convertible_toIRN6ranges14adaptor_cursorIN9__gnu_cxx17__normal_iteratorIPNSt7__cxx1112basic_stringIcSt11char_traitsIcESaIcEEESt6vectorISB_SaISB_EEEENS2_19iter_transform_viewINS2_8ref_viewISF_EENS2_10indirectedIZ4mainEUlSB_E_EEE7adaptorILb0EEEEESQ_EE:
	.byte	1
	.type	_ZN8concepts4defs14convertible_toIRKN6ranges14adaptor_cursorIN9__gnu_cxx17__normal_iteratorIPNSt7__cxx1112basic_stringIcSt11char_traitsIcESaIcEEESt6vectorISB_SaISB_EEEENS2_19iter_transform_viewINS2_8ref_viewISF_EENS2_10indirectedIZ4mainEUlSB_E_EEE7adaptorILb0EEEEESQ_EE, @object
	.size	_ZN8concepts4defs14convertible_toIRKN6ranges14adaptor_cursorIN9__gnu_cxx17__normal_iteratorIPNSt7__cxx1112basic_stringIcSt11char_traitsIcESaIcEEESt6vectorISB_SaISB_EEEENS2_19iter_transform_viewINS2_8ref_viewISF_EENS2_10indirectedIZ4mainEUlSB_E_EEE7adaptorILb0EEEEESQ_EE, 1
_ZN8concepts4defs14convertible_toIRKN6ranges14adaptor_cursorIN9__gnu_cxx17__normal_iteratorIPNSt7__cxx1112basic_stringIcSt11char_traitsIcESaIcEEESt6vectorISB_SaISB_EEEENS2_19iter_transform_viewINS2_8ref_viewISF_EENS2_10indirectedIZ4mainEUlSB_E_EEE7adaptorILb0EEEEESQ_EE:
	.byte	1
	.type	_ZN8concepts4defs25implicitly_convertible_toIRKN6ranges14adaptor_cursorIN9__gnu_cxx17__normal_iteratorIPNSt7__cxx1112basic_stringIcSt11char_traitsIcESaIcEEESt6vectorISB_SaISB_EEEENS2_19iter_transform_viewINS2_8ref_viewISF_EENS2_10indirectedIZ4mainEUlSB_E_EEE7adaptorILb0EEEEESQ_EE, @object
	.size	_ZN8concepts4defs25implicitly_convertible_toIRKN6ranges14adaptor_cursorIN9__gnu_cxx17__normal_iteratorIPNSt7__cxx1112basic_stringIcSt11char_traitsIcESaIcEEESt6vectorISB_SaISB_EEEENS2_19iter_transform_viewINS2_8ref_viewISF_EENS2_10indirectedIZ4mainEUlSB_E_EEE7adaptorILb0EEEEESQ_EE, 1
_ZN8concepts4defs25implicitly_convertible_toIRKN6ranges14adaptor_cursorIN9__gnu_cxx17__normal_iteratorIPNSt7__cxx1112basic_stringIcSt11char_traitsIcESaIcEEESt6vectorISB_SaISB_EEEENS2_19iter_transform_viewINS2_8ref_viewISF_EENS2_10indirectedIZ4mainEUlSB_E_EEE7adaptorILb0EEEEESQ_EE:
	.byte	1
	.type	_ZN8concepts4defs25explicitly_convertible_toIRKN6ranges14adaptor_cursorIN9__gnu_cxx17__normal_iteratorIPNSt7__cxx1112basic_stringIcSt11char_traitsIcESaIcEEESt6vectorISB_SaISB_EEEENS2_19iter_transform_viewINS2_8ref_viewISF_EENS2_10indirectedIZ4mainEUlSB_E_EEE7adaptorILb0EEEEESQ_EE, @object
	.size	_ZN8concepts4defs25explicitly_convertible_toIRKN6ranges14adaptor_cursorIN9__gnu_cxx17__normal_iteratorIPNSt7__cxx1112basic_stringIcSt11char_traitsIcESaIcEEESt6vectorISB_SaISB_EEEENS2_19iter_transform_viewINS2_8ref_viewISF_EENS2_10indirectedIZ4mainEUlSB_E_EEE7adaptorILb0EEEEESQ_EE, 1
_ZN8concepts4defs25explicitly_convertible_toIRKN6ranges14adaptor_cursorIN9__gnu_cxx17__normal_iteratorIPNSt7__cxx1112basic_stringIcSt11char_traitsIcESaIcEEESt6vectorISB_SaISB_EEEENS2_19iter_transform_viewINS2_8ref_viewISF_EENS2_10indirectedIZ4mainEUlSB_E_EEE7adaptorILb0EEEEESQ_EE:
	.byte	1
	.type	_ZN8concepts4defs14convertible_toIKN6ranges14adaptor_cursorIN9__gnu_cxx17__normal_iteratorIPNSt7__cxx1112basic_stringIcSt11char_traitsIcESaIcEEESt6vectorISB_SaISB_EEEENS2_19iter_transform_viewINS2_8ref_viewISF_EENS2_10indirectedIZ4mainEUlSB_E_EEE7adaptorILb0EEEEESQ_EE, @object
	.size	_ZN8concepts4defs14convertible_toIKN6ranges14adaptor_cursorIN9__gnu_cxx17__normal_iteratorIPNSt7__cxx1112basic_stringIcSt11char_traitsIcESaIcEEESt6vectorISB_SaISB_EEEENS2_19iter_transform_viewINS2_8ref_viewISF_EENS2_10indirectedIZ4mainEUlSB_E_EEE7adaptorILb0EEEEESQ_EE, 1
_ZN8concepts4defs14convertible_toIKN6ranges14adaptor_cursorIN9__gnu_cxx17__normal_iteratorIPNSt7__cxx1112basic_stringIcSt11char_traitsIcESaIcEEESt6vectorISB_SaISB_EEEENS2_19iter_transform_viewINS2_8ref_viewISF_EENS2_10indirectedIZ4mainEUlSB_E_EEE7adaptorILb0EEEEESQ_EE:
	.byte	1
	.type	_ZN8concepts4defs25implicitly_convertible_toIKN6ranges14adaptor_cursorIN9__gnu_cxx17__normal_iteratorIPNSt7__cxx1112basic_stringIcSt11char_traitsIcESaIcEEESt6vectorISB_SaISB_EEEENS2_19iter_transform_viewINS2_8ref_viewISF_EENS2_10indirectedIZ4mainEUlSB_E_EEE7adaptorILb0EEEEESQ_EE, @object
	.size	_ZN8concepts4defs25implicitly_convertible_toIKN6ranges14adaptor_cursorIN9__gnu_cxx17__normal_iteratorIPNSt7__cxx1112basic_stringIcSt11char_traitsIcESaIcEEESt6vectorISB_SaISB_EEEENS2_19iter_transform_viewINS2_8ref_viewISF_EENS2_10indirectedIZ4mainEUlSB_E_EEE7adaptorILb0EEEEESQ_EE, 1
_ZN8concepts4defs25implicitly_convertible_toIKN6ranges14adaptor_cursorIN9__gnu_cxx17__normal_iteratorIPNSt7__cxx1112basic_stringIcSt11char_traitsIcESaIcEEESt6vectorISB_SaISB_EEEENS2_19iter_transform_viewINS2_8ref_viewISF_EENS2_10indirectedIZ4mainEUlSB_E_EEE7adaptorILb0EEEEESQ_EE:
	.byte	1
	.type	_ZN8concepts4defs25explicitly_convertible_toIKN6ranges14adaptor_cursorIN9__gnu_cxx17__normal_iteratorIPNSt7__cxx1112basic_stringIcSt11char_traitsIcESaIcEEESt6vectorISB_SaISB_EEEENS2_19iter_transform_viewINS2_8ref_viewISF_EENS2_10indirectedIZ4mainEUlSB_E_EEE7adaptorILb0EEEEESQ_EE, @object
	.size	_ZN8concepts4defs25explicitly_convertible_toIKN6ranges14adaptor_cursorIN9__gnu_cxx17__normal_iteratorIPNSt7__cxx1112basic_stringIcSt11char_traitsIcESaIcEEESt6vectorISB_SaISB_EEEENS2_19iter_transform_viewINS2_8ref_viewISF_EENS2_10indirectedIZ4mainEUlSB_E_EEE7adaptorILb0EEEEESQ_EE, 1
_ZN8concepts4defs25explicitly_convertible_toIKN6ranges14adaptor_cursorIN9__gnu_cxx17__normal_iteratorIPNSt7__cxx1112basic_stringIcSt11char_traitsIcESaIcEEESt6vectorISB_SaISB_EEEENS2_19iter_transform_viewINS2_8ref_viewISF_EENS2_10indirectedIZ4mainEUlSB_E_EEE7adaptorILb0EEEEESQ_EE:
	.byte	1
	.type	_ZN8concepts4defs7movableIN6ranges14adaptor_cursorIN9__gnu_cxx17__normal_iteratorIPNSt7__cxx1112basic_stringIcSt11char_traitsIcESaIcEEESt6vectorISB_SaISB_EEEENS2_19iter_transform_viewINS2_8ref_viewISF_EENS2_10indirectedIZ4mainEUlSB_E_EEE7adaptorILb0EEEEEEE, @object
	.size	_ZN8concepts4defs7movableIN6ranges14adaptor_cursorIN9__gnu_cxx17__normal_iteratorIPNSt7__cxx1112basic_stringIcSt11char_traitsIcESaIcEEESt6vectorISB_SaISB_EEEENS2_19iter_transform_viewINS2_8ref_viewISF_EENS2_10indirectedIZ4mainEUlSB_E_EEE7adaptorILb0EEEEEEE, 1
_ZN8concepts4defs7movableIN6ranges14adaptor_cursorIN9__gnu_cxx17__normal_iteratorIPNSt7__cxx1112basic_stringIcSt11char_traitsIcESaIcEEESt6vectorISB_SaISB_EEEENS2_19iter_transform_viewINS2_8ref_viewISF_EENS2_10indirectedIZ4mainEUlSB_E_EEE7adaptorILb0EEEEEEE:
	.byte	1
	.type	_ZN8concepts4defs15assignable_fromIRN6ranges14adaptor_cursorIN9__gnu_cxx17__normal_iteratorIPNSt7__cxx1112basic_stringIcSt11char_traitsIcESaIcEEESt6vectorISB_SaISB_EEEENS2_19iter_transform_viewINS2_8ref_viewISF_EENS2_10indirectedIZ4mainEUlSB_E_EEE7adaptorILb0EEEEESQ_EE, @object
	.size	_ZN8concepts4defs15assignable_fromIRN6ranges14adaptor_cursorIN9__gnu_cxx17__normal_iteratorIPNSt7__cxx1112basic_stringIcSt11char_traitsIcESaIcEEESt6vectorISB_SaISB_EEEENS2_19iter_transform_viewINS2_8ref_viewISF_EENS2_10indirectedIZ4mainEUlSB_E_EEE7adaptorILb0EEEEESQ_EE, 1
_ZN8concepts4defs15assignable_fromIRN6ranges14adaptor_cursorIN9__gnu_cxx17__normal_iteratorIPNSt7__cxx1112basic_stringIcSt11char_traitsIcESaIcEEESt6vectorISB_SaISB_EEEENS2_19iter_transform_viewINS2_8ref_viewISF_EENS2_10indirectedIZ4mainEUlSB_E_EEE7adaptorILb0EEEEESQ_EE:
	.byte	1
	.type	_ZN8concepts4defs21common_reference_withIRKN6ranges14adaptor_cursorIN9__gnu_cxx17__normal_iteratorIPNSt7__cxx1112basic_stringIcSt11char_traitsIcESaIcEEESt6vectorISB_SaISB_EEEENS2_19iter_transform_viewINS2_8ref_viewISF_EENS2_10indirectedIZ4mainEUlSB_E_EEE7adaptorILb0EEEEESS_EE, @object
	.size	_ZN8concepts4defs21common_reference_withIRKN6ranges14adaptor_cursorIN9__gnu_cxx17__normal_iteratorIPNSt7__cxx1112basic_stringIcSt11char_traitsIcESaIcEEESt6vectorISB_SaISB_EEEENS2_19iter_transform_viewINS2_8ref_viewISF_EENS2_10indirectedIZ4mainEUlSB_E_EEE7adaptorILb0EEEEESS_EE, 1
_ZN8concepts4defs21common_reference_withIRKN6ranges14adaptor_cursorIN9__gnu_cxx17__normal_iteratorIPNSt7__cxx1112basic_stringIcSt11char_traitsIcESaIcEEESt6vectorISB_SaISB_EEEENS2_19iter_transform_viewINS2_8ref_viewISF_EENS2_10indirectedIZ4mainEUlSB_E_EEE7adaptorILb0EEEEESS_EE:
	.byte	1
	.type	_ZN8concepts4defs7same_asIRKN6ranges14adaptor_cursorIN9__gnu_cxx17__normal_iteratorIPNSt7__cxx1112basic_stringIcSt11char_traitsIcESaIcEEESt6vectorISB_SaISB_EEEENS2_19iter_transform_viewINS2_8ref_viewISF_EENS2_10indirectedIZ4mainEUlSB_E_EEE7adaptorILb0EEEEESS_EE, @object
	.size	_ZN8concepts4defs7same_asIRKN6ranges14adaptor_cursorIN9__gnu_cxx17__normal_iteratorIPNSt7__cxx1112basic_stringIcSt11char_traitsIcESaIcEEESt6vectorISB_SaISB_EEEENS2_19iter_transform_viewINS2_8ref_viewISF_EENS2_10indirectedIZ4mainEUlSB_E_EEE7adaptorILb0EEEEESS_EE, 1
_ZN8concepts4defs7same_asIRKN6ranges14adaptor_cursorIN9__gnu_cxx17__normal_iteratorIPNSt7__cxx1112basic_stringIcSt11char_traitsIcESaIcEEESt6vectorISB_SaISB_EEEENS2_19iter_transform_viewINS2_8ref_viewISF_EENS2_10indirectedIZ4mainEUlSB_E_EEE7adaptorILb0EEEEESS_EE:
	.byte	1
	.type	_ZN8concepts4defs14convertible_toIRKN6ranges14adaptor_cursorIN9__gnu_cxx17__normal_iteratorIPNSt7__cxx1112basic_stringIcSt11char_traitsIcESaIcEEESt6vectorISB_SaISB_EEEENS2_19iter_transform_viewINS2_8ref_viewISF_EENS2_10indirectedIZ4mainEUlSB_E_EEE7adaptorILb0EEEEESS_EE, @object
	.size	_ZN8concepts4defs14convertible_toIRKN6ranges14adaptor_cursorIN9__gnu_cxx17__normal_iteratorIPNSt7__cxx1112basic_stringIcSt11char_traitsIcESaIcEEESt6vectorISB_SaISB_EEEENS2_19iter_transform_viewINS2_8ref_viewISF_EENS2_10indirectedIZ4mainEUlSB_E_EEE7adaptorILb0EEEEESS_EE, 1
_ZN8concepts4defs14convertible_toIRKN6ranges14adaptor_cursorIN9__gnu_cxx17__normal_iteratorIPNSt7__cxx1112basic_stringIcSt11char_traitsIcESaIcEEESt6vectorISB_SaISB_EEEENS2_19iter_transform_viewINS2_8ref_viewISF_EENS2_10indirectedIZ4mainEUlSB_E_EEE7adaptorILb0EEEEESS_EE:
	.byte	1
	.type	_ZN8concepts4defs25implicitly_convertible_toIRKN6ranges14adaptor_cursorIN9__gnu_cxx17__normal_iteratorIPNSt7__cxx1112basic_stringIcSt11char_traitsIcESaIcEEESt6vectorISB_SaISB_EEEENS2_19iter_transform_viewINS2_8ref_viewISF_EENS2_10indirectedIZ4mainEUlSB_E_EEE7adaptorILb0EEEEESS_EE, @object
	.size	_ZN8concepts4defs25implicitly_convertible_toIRKN6ranges14adaptor_cursorIN9__gnu_cxx17__normal_iteratorIPNSt7__cxx1112basic_stringIcSt11char_traitsIcESaIcEEESt6vectorISB_SaISB_EEEENS2_19iter_transform_viewINS2_8ref_viewISF_EENS2_10indirectedIZ4mainEUlSB_E_EEE7adaptorILb0EEEEESS_EE, 1
_ZN8concepts4defs25implicitly_convertible_toIRKN6ranges14adaptor_cursorIN9__gnu_cxx17__normal_iteratorIPNSt7__cxx1112basic_stringIcSt11char_traitsIcESaIcEEESt6vectorISB_SaISB_EEEENS2_19iter_transform_viewINS2_8ref_viewISF_EENS2_10indirectedIZ4mainEUlSB_E_EEE7adaptorILb0EEEEESS_EE:
	.byte	1
	.type	_ZN8concepts4defs25explicitly_convertible_toIRKN6ranges14adaptor_cursorIN9__gnu_cxx17__normal_iteratorIPNSt7__cxx1112basic_stringIcSt11char_traitsIcESaIcEEESt6vectorISB_SaISB_EEEENS2_19iter_transform_viewINS2_8ref_viewISF_EENS2_10indirectedIZ4mainEUlSB_E_EEE7adaptorILb0EEEEESS_EE, @object
	.size	_ZN8concepts4defs25explicitly_convertible_toIRKN6ranges14adaptor_cursorIN9__gnu_cxx17__normal_iteratorIPNSt7__cxx1112basic_stringIcSt11char_traitsIcESaIcEEESt6vectorISB_SaISB_EEEENS2_19iter_transform_viewINS2_8ref_viewISF_EENS2_10indirectedIZ4mainEUlSB_E_EEE7adaptorILb0EEEEESS_EE, 1
_ZN8concepts4defs25explicitly_convertible_toIRKN6ranges14adaptor_cursorIN9__gnu_cxx17__normal_iteratorIPNSt7__cxx1112basic_stringIcSt11char_traitsIcESaIcEEESt6vectorISB_SaISB_EEEENS2_19iter_transform_viewINS2_8ref_viewISF_EENS2_10indirectedIZ4mainEUlSB_E_EEE7adaptorILb0EEEEESS_EE:
	.byte	1
	.type	_ZN8concepts4defs7same_asIRN6ranges14adaptor_cursorIN9__gnu_cxx17__normal_iteratorIPNSt7__cxx1112basic_stringIcSt11char_traitsIcESaIcEEESt6vectorISB_SaISB_EEEENS2_19iter_transform_viewINS2_8ref_viewISF_EENS2_10indirectedIZ4mainEUlSB_E_EEE7adaptorILb0EEEEESR_EE, @object
	.size	_ZN8concepts4defs7same_asIRN6ranges14adaptor_cursorIN9__gnu_cxx17__normal_iteratorIPNSt7__cxx1112basic_stringIcSt11char_traitsIcESaIcEEESt6vectorISB_SaISB_EEEENS2_19iter_transform_viewINS2_8ref_viewISF_EENS2_10indirectedIZ4mainEUlSB_E_EEE7adaptorILb0EEEEESR_EE, 1
_ZN8concepts4defs7same_asIRN6ranges14adaptor_cursorIN9__gnu_cxx17__normal_iteratorIPNSt7__cxx1112basic_stringIcSt11char_traitsIcESaIcEEESt6vectorISB_SaISB_EEEENS2_19iter_transform_viewINS2_8ref_viewISF_EENS2_10indirectedIZ4mainEUlSB_E_EEE7adaptorILb0EEEEESR_EE:
	.byte	1
	.type	_ZN8concepts4defs9swappableIN6ranges14adaptor_cursorIN9__gnu_cxx17__normal_iteratorIPNSt7__cxx1112basic_stringIcSt11char_traitsIcESaIcEEESt6vectorISB_SaISB_EEEENS2_19iter_transform_viewINS2_8ref_viewISF_EENS2_10indirectedIZ4mainEUlSB_E_EEE7adaptorILb0EEEEEEE, @object
	.size	_ZN8concepts4defs9swappableIN6ranges14adaptor_cursorIN9__gnu_cxx17__normal_iteratorIPNSt7__cxx1112basic_stringIcSt11char_traitsIcESaIcEEESt6vectorISB_SaISB_EEEENS2_19iter_transform_viewINS2_8ref_viewISF_EENS2_10indirectedIZ4mainEUlSB_E_EEE7adaptorILb0EEEEEEE, 1
_ZN8concepts4defs9swappableIN6ranges14adaptor_cursorIN9__gnu_cxx17__normal_iteratorIPNSt7__cxx1112basic_stringIcSt11char_traitsIcESaIcEEESt6vectorISB_SaISB_EEEENS2_19iter_transform_viewINS2_8ref_viewISF_EENS2_10indirectedIZ4mainEUlSB_E_EEE7adaptorILb0EEEEEEE:
	.byte	1
	.type	_ZN8concepts15adl_swap_detail18is_adl_swappable_vIRN6ranges14adaptor_cursorIN9__gnu_cxx17__normal_iteratorIPNSt7__cxx1112basic_stringIcSt11char_traitsIcESaIcEEESt6vectorISB_SaISB_EEEENS2_19iter_transform_viewINS2_8ref_viewISF_EENS2_10indirectedIZ4mainEUlSB_E_EEE7adaptorILb0EEEEESR_EE, @object
	.size	_ZN8concepts15adl_swap_detail18is_adl_swappable_vIRN6ranges14adaptor_cursorIN9__gnu_cxx17__normal_iteratorIPNSt7__cxx1112basic_stringIcSt11char_traitsIcESaIcEEESt6vectorISB_SaISB_EEEENS2_19iter_transform_viewINS2_8ref_viewISF_EENS2_10indirectedIZ4mainEUlSB_E_EEE7adaptorILb0EEEEESR_EE, 1
_ZN8concepts15adl_swap_detail18is_adl_swappable_vIRN6ranges14adaptor_cursorIN9__gnu_cxx17__normal_iteratorIPNSt7__cxx1112basic_stringIcSt11char_traitsIcESaIcEEESt6vectorISB_SaISB_EEEENS2_19iter_transform_viewINS2_8ref_viewISF_EENS2_10indirectedIZ4mainEUlSB_E_EEE7adaptorILb0EEEEESR_EE:
	.zero	1
	.type	_ZN8concepts6detail12is_movable_vIN6ranges14adaptor_cursorIN9__gnu_cxx17__normal_iteratorIPNSt7__cxx1112basic_stringIcSt11char_traitsIcESaIcEEESt6vectorISB_SaISB_EEEENS2_19iter_transform_viewINS2_8ref_viewISF_EENS2_10indirectedIZ4mainEUlSB_E_EEE7adaptorILb0EEEEEEE, @object
	.size	_ZN8concepts6detail12is_movable_vIN6ranges14adaptor_cursorIN9__gnu_cxx17__normal_iteratorIPNSt7__cxx1112basic_stringIcSt11char_traitsIcESaIcEEESt6vectorISB_SaISB_EEEENS2_19iter_transform_viewINS2_8ref_viewISF_EENS2_10indirectedIZ4mainEUlSB_E_EEE7adaptorILb0EEEEEEE, 1
_ZN8concepts6detail12is_movable_vIN6ranges14adaptor_cursorIN9__gnu_cxx17__normal_iteratorIPNSt7__cxx1112basic_stringIcSt11char_traitsIcESaIcEEESt6vectorISB_SaISB_EEEENS2_19iter_transform_viewINS2_8ref_viewISF_EENS2_10indirectedIZ4mainEUlSB_E_EEE7adaptorILb0EEEEEEE:
	.byte	1
	.type	_ZN8concepts4defs15assignable_fromIRN6ranges14adaptor_cursorIN9__gnu_cxx17__normal_iteratorIPNSt7__cxx1112basic_stringIcSt11char_traitsIcESaIcEEESt6vectorISB_SaISB_EEEENS2_19iter_transform_viewINS2_8ref_viewISF_EENS2_10indirectedIZ4mainEUlSB_E_EEE7adaptorILb0EEEEERKSQ_EE, @object
	.size	_ZN8concepts4defs15assignable_fromIRN6ranges14adaptor_cursorIN9__gnu_cxx17__normal_iteratorIPNSt7__cxx1112basic_stringIcSt11char_traitsIcESaIcEEESt6vectorISB_SaISB_EEEENS2_19iter_transform_viewINS2_8ref_viewISF_EENS2_10indirectedIZ4mainEUlSB_E_EEE7adaptorILb0EEEEERKSQ_EE, 1
_ZN8concepts4defs15assignable_fromIRN6ranges14adaptor_cursorIN9__gnu_cxx17__normal_iteratorIPNSt7__cxx1112basic_stringIcSt11char_traitsIcESaIcEEESt6vectorISB_SaISB_EEEENS2_19iter_transform_viewINS2_8ref_viewISF_EENS2_10indirectedIZ4mainEUlSB_E_EEE7adaptorILb0EEEEERKSQ_EE:
	.byte	1
	.type	_ZN8concepts4defs21default_constructibleIN6ranges14adaptor_cursorIN9__gnu_cxx17__normal_iteratorIPNSt7__cxx1112basic_stringIcSt11char_traitsIcESaIcEEESt6vectorISB_SaISB_EEEENS2_19iter_transform_viewINS2_8ref_viewISF_EENS2_10indirectedIZ4mainEUlSB_E_EEE7adaptorILb0EEEEEEE, @object
	.size	_ZN8concepts4defs21default_constructibleIN6ranges14adaptor_cursorIN9__gnu_cxx17__normal_iteratorIPNSt7__cxx1112basic_stringIcSt11char_traitsIcESaIcEEESt6vectorISB_SaISB_EEEENS2_19iter_transform_viewINS2_8ref_viewISF_EENS2_10indirectedIZ4mainEUlSB_E_EEE7adaptorILb0EEEEEEE, 1
_ZN8concepts4defs21default_constructibleIN6ranges14adaptor_cursorIN9__gnu_cxx17__normal_iteratorIPNSt7__cxx1112basic_stringIcSt11char_traitsIcESaIcEEESt6vectorISB_SaISB_EEEENS2_19iter_transform_viewINS2_8ref_viewISF_EENS2_10indirectedIZ4mainEUlSB_E_EEE7adaptorILb0EEEEEEE:
	.byte	1
	.type	_ZN8concepts4defs18constructible_fromIN6ranges14adaptor_cursorIN9__gnu_cxx17__normal_iteratorIPNSt7__cxx1112basic_stringIcSt11char_traitsIcESaIcEEESt6vectorISB_SaISB_EEEENS2_19iter_transform_viewINS2_8ref_viewISF_EENS2_10indirectedIZ4mainEUlSB_E_EEE7adaptorILb0EEEEEJEEE, @object
	.size	_ZN8concepts4defs18constructible_fromIN6ranges14adaptor_cursorIN9__gnu_cxx17__normal_iteratorIPNSt7__cxx1112basic_stringIcSt11char_traitsIcESaIcEEESt6vectorISB_SaISB_EEEENS2_19iter_transform_viewINS2_8ref_viewISF_EENS2_10indirectedIZ4mainEUlSB_E_EEE7adaptorILb0EEEEEJEEE, 1
_ZN8concepts4defs18constructible_fromIN6ranges14adaptor_cursorIN9__gnu_cxx17__normal_iteratorIPNSt7__cxx1112basic_stringIcSt11char_traitsIcESaIcEEESt6vectorISB_SaISB_EEEENS2_19iter_transform_viewINS2_8ref_viewISF_EENS2_10indirectedIZ4mainEUlSB_E_EEE7adaptorILb0EEEEEJEEE:
	.byte	1
	.type	_ZN8concepts4defs11semiregularIN6ranges14adaptor_cursorIN9__gnu_cxx17__normal_iteratorIPNSt7__cxx1112basic_stringIcSt11char_traitsIcESaIcEEESt6vectorISB_SaISB_EEEENS2_19iter_transform_viewINS2_8ref_viewISF_EENS2_10indirectedIZ4mainEUlSB_E_EEE7adaptorILb0EEEE19basic_adaptor_mixinEEE, @object
	.size	_ZN8concepts4defs11semiregularIN6ranges14adaptor_cursorIN9__gnu_cxx17__normal_iteratorIPNSt7__cxx1112basic_stringIcSt11char_traitsIcESaIcEEESt6vectorISB_SaISB_EEEENS2_19iter_transform_viewINS2_8ref_viewISF_EENS2_10indirectedIZ4mainEUlSB_E_EEE7adaptorILb0EEEE19basic_adaptor_mixinEEE, 1
_ZN8concepts4defs11semiregularIN6ranges14adaptor_cursorIN9__gnu_cxx17__normal_iteratorIPNSt7__cxx1112basic_stringIcSt11char_traitsIcESaIcEEESt6vectorISB_SaISB_EEEENS2_19iter_transform_viewINS2_8ref_viewISF_EENS2_10indirectedIZ4mainEUlSB_E_EEE7adaptorILb0EEEE19basic_adaptor_mixinEEE:
	.byte	1
	.type	_ZN8concepts4defs8copyableIN6ranges14adaptor_cursorIN9__gnu_cxx17__normal_iteratorIPNSt7__cxx1112basic_stringIcSt11char_traitsIcESaIcEEESt6vectorISB_SaISB_EEEENS2_19iter_transform_viewINS2_8ref_viewISF_EENS2_10indirectedIZ4mainEUlSB_E_EEE7adaptorILb0EEEE19basic_adaptor_mixinEEE, @object
	.size	_ZN8concepts4defs8copyableIN6ranges14adaptor_cursorIN9__gnu_cxx17__normal_iteratorIPNSt7__cxx1112basic_stringIcSt11char_traitsIcESaIcEEESt6vectorISB_SaISB_EEEENS2_19iter_transform_viewINS2_8ref_viewISF_EENS2_10indirectedIZ4mainEUlSB_E_EEE7adaptorILb0EEEE19basic_adaptor_mixinEEE, 1
_ZN8concepts4defs8copyableIN6ranges14adaptor_cursorIN9__gnu_cxx17__normal_iteratorIPNSt7__cxx1112basic_stringIcSt11char_traitsIcESaIcEEESt6vectorISB_SaISB_EEEENS2_19iter_transform_viewINS2_8ref_viewISF_EENS2_10indirectedIZ4mainEUlSB_E_EEE7adaptorILb0EEEE19basic_adaptor_mixinEEE:
	.byte	1
	.type	_ZN8concepts4defs18copy_constructibleIN6ranges14adaptor_cursorIN9__gnu_cxx17__normal_iteratorIPNSt7__cxx1112basic_stringIcSt11char_traitsIcESaIcEEESt6vectorISB_SaISB_EEEENS2_19iter_transform_viewINS2_8ref_viewISF_EENS2_10indirectedIZ4mainEUlSB_E_EEE7adaptorILb0EEEE19basic_adaptor_mixinEEE, @object
	.size	_ZN8concepts4defs18copy_constructibleIN6ranges14adaptor_cursorIN9__gnu_cxx17__normal_iteratorIPNSt7__cxx1112basic_stringIcSt11char_traitsIcESaIcEEESt6vectorISB_SaISB_EEEENS2_19iter_transform_viewINS2_8ref_viewISF_EENS2_10indirectedIZ4mainEUlSB_E_EEE7adaptorILb0EEEE19basic_adaptor_mixinEEE, 1
_ZN8concepts4defs18copy_constructibleIN6ranges14adaptor_cursorIN9__gnu_cxx17__normal_iteratorIPNSt7__cxx1112basic_stringIcSt11char_traitsIcESaIcEEESt6vectorISB_SaISB_EEEENS2_19iter_transform_viewINS2_8ref_viewISF_EENS2_10indirectedIZ4mainEUlSB_E_EEE7adaptorILb0EEEE19basic_adaptor_mixinEEE:
	.byte	1
	.type	_ZN8concepts4defs18move_constructibleIN6ranges14adaptor_cursorIN9__gnu_cxx17__normal_iteratorIPNSt7__cxx1112basic_stringIcSt11char_traitsIcESaIcEEESt6vectorISB_SaISB_EEEENS2_19iter_transform_viewINS2_8ref_viewISF_EENS2_10indirectedIZ4mainEUlSB_E_EEE7adaptorILb0EEEE19basic_adaptor_mixinEEE, @object
	.size	_ZN8concepts4defs18move_constructibleIN6ranges14adaptor_cursorIN9__gnu_cxx17__normal_iteratorIPNSt7__cxx1112basic_stringIcSt11char_traitsIcESaIcEEESt6vectorISB_SaISB_EEEENS2_19iter_transform_viewINS2_8ref_viewISF_EENS2_10indirectedIZ4mainEUlSB_E_EEE7adaptorILb0EEEE19basic_adaptor_mixinEEE, 1
_ZN8concepts4defs18move_constructibleIN6ranges14adaptor_cursorIN9__gnu_cxx17__normal_iteratorIPNSt7__cxx1112basic_stringIcSt11char_traitsIcESaIcEEESt6vectorISB_SaISB_EEEENS2_19iter_transform_viewINS2_8ref_viewISF_EENS2_10indirectedIZ4mainEUlSB_E_EEE7adaptorILb0EEEE19basic_adaptor_mixinEEE:
	.byte	1
	.type	_ZN8concepts4defs18constructible_fromIN6ranges14adaptor_cursorIN9__gnu_cxx17__normal_iteratorIPNSt7__cxx1112basic_stringIcSt11char_traitsIcESaIcEEESt6vectorISB_SaISB_EEEENS2_19iter_transform_viewINS2_8ref_viewISF_EENS2_10indirectedIZ4mainEUlSB_E_EEE7adaptorILb0EEEE19basic_adaptor_mixinEJSR_EEE, @object
	.size	_ZN8concepts4defs18constructible_fromIN6ranges14adaptor_cursorIN9__gnu_cxx17__normal_iteratorIPNSt7__cxx1112basic_stringIcSt11char_traitsIcESaIcEEESt6vectorISB_SaISB_EEEENS2_19iter_transform_viewINS2_8ref_viewISF_EENS2_10indirectedIZ4mainEUlSB_E_EEE7adaptorILb0EEEE19basic_adaptor_mixinEJSR_EEE, 1
_ZN8concepts4defs18constructible_fromIN6ranges14adaptor_cursorIN9__gnu_cxx17__normal_iteratorIPNSt7__cxx1112basic_stringIcSt11char_traitsIcESaIcEEESt6vectorISB_SaISB_EEEENS2_19iter_transform_viewINS2_8ref_viewISF_EENS2_10indirectedIZ4mainEUlSB_E_EEE7adaptorILb0EEEE19basic_adaptor_mixinEJSR_EEE:
	.byte	1
	.type	_ZN8concepts4defs12destructibleIN6ranges14adaptor_cursorIN9__gnu_cxx17__normal_iteratorIPNSt7__cxx1112basic_stringIcSt11char_traitsIcESaIcEEESt6vectorISB_SaISB_EEEENS2_19iter_transform_viewINS2_8ref_viewISF_EENS2_10indirectedIZ4mainEUlSB_E_EEE7adaptorILb0EEEE19basic_adaptor_mixinEEE, @object
	.size	_ZN8concepts4defs12destructibleIN6ranges14adaptor_cursorIN9__gnu_cxx17__normal_iteratorIPNSt7__cxx1112basic_stringIcSt11char_traitsIcESaIcEEESt6vectorISB_SaISB_EEEENS2_19iter_transform_viewINS2_8ref_viewISF_EENS2_10indirectedIZ4mainEUlSB_E_EEE7adaptorILb0EEEE19basic_adaptor_mixinEEE, 1
_ZN8concepts4defs12destructibleIN6ranges14adaptor_cursorIN9__gnu_cxx17__normal_iteratorIPNSt7__cxx1112basic_stringIcSt11char_traitsIcESaIcEEESt6vectorISB_SaISB_EEEENS2_19iter_transform_viewINS2_8ref_viewISF_EENS2_10indirectedIZ4mainEUlSB_E_EEE7adaptorILb0EEEE19basic_adaptor_mixinEEE:
	.byte	1
	.type	_ZN6ranges6detail12is_trivial_vINS_14adaptor_cursorIN9__gnu_cxx17__normal_iteratorIPNSt7__cxx1112basic_stringIcSt11char_traitsIcESaIcEEESt6vectorISA_SaISA_EEEENS_19iter_transform_viewINS_8ref_viewISE_EENS_10indirectedIZ4mainEUlSA_E_EEE7adaptorILb0EEEEEEE, @object
	.size	_ZN6ranges6detail12is_trivial_vINS_14adaptor_cursorIN9__gnu_cxx17__normal_iteratorIPNSt7__cxx1112basic_stringIcSt11char_traitsIcESaIcEEESt6vectorISA_SaISA_EEEENS_19iter_transform_viewINS_8ref_viewISE_EENS_10indirectedIZ4mainEUlSA_E_EEE7adaptorILb0EEEEEEE, 1
_ZN6ranges6detail12is_trivial_vINS_14adaptor_cursorIN9__gnu_cxx17__normal_iteratorIPNSt7__cxx1112basic_stringIcSt11char_traitsIcESaIcEEESt6vectorISA_SaISA_EEEENS_19iter_transform_viewINS_8ref_viewISE_EENS_10indirectedIZ4mainEUlSA_E_EEE7adaptorILb0EEEEEEE:
	.zero	1
	.type	_ZSt23is_trivially_copyable_vIN6ranges14adaptor_cursorIN9__gnu_cxx17__normal_iteratorIPNSt7__cxx1112basic_stringIcSt11char_traitsIcESaIcEEESt6vectorIS9_SaIS9_EEEENS0_19iter_transform_viewINS0_8ref_viewISD_EENS0_10indirectedIZ4mainEUlS9_E_EEE7adaptorILb0EEEEEE, @object
	.size	_ZSt23is_trivially_copyable_vIN6ranges14adaptor_cursorIN9__gnu_cxx17__normal_iteratorIPNSt7__cxx1112basic_stringIcSt11char_traitsIcESaIcEEESt6vectorIS9_SaIS9_EEEENS0_19iter_transform_viewINS0_8ref_viewISD_EENS0_10indirectedIZ4mainEUlS9_E_EEE7adaptorILb0EEEEEE, 1
_ZSt23is_trivially_copyable_vIN6ranges14adaptor_cursorIN9__gnu_cxx17__normal_iteratorIPNSt7__cxx1112basic_stringIcSt11char_traitsIcESaIcEEESt6vectorIS9_SaIS9_EEEENS0_19iter_transform_viewINS0_8ref_viewISD_EENS0_10indirectedIZ4mainEUlS9_E_EEE7adaptorILb0EEEEEE:
	.byte	1
	.type	_ZSt36is_trivially_default_constructible_vIN6ranges14adaptor_cursorIN9__gnu_cxx17__normal_iteratorIPNSt7__cxx1112basic_stringIcSt11char_traitsIcESaIcEEESt6vectorIS9_SaIS9_EEEENS0_19iter_transform_viewINS0_8ref_viewISD_EENS0_10indirectedIZ4mainEUlS9_E_EEE7adaptorILb0EEEEEE, @object
	.size	_ZSt36is_trivially_default_constructible_vIN6ranges14adaptor_cursorIN9__gnu_cxx17__normal_iteratorIPNSt7__cxx1112basic_stringIcSt11char_traitsIcESaIcEEESt6vectorIS9_SaIS9_EEEENS0_19iter_transform_viewINS0_8ref_viewISD_EENS0_10indirectedIZ4mainEUlS9_E_EEE7adaptorILb0EEEEEE, 1
_ZSt36is_trivially_default_constructible_vIN6ranges14adaptor_cursorIN9__gnu_cxx17__normal_iteratorIPNSt7__cxx1112basic_stringIcSt11char_traitsIcESaIcEEESt6vectorIS9_SaIS9_EEEENS0_19iter_transform_viewINS0_8ref_viewISD_EENS0_10indirectedIZ4mainEUlS9_E_EEE7adaptorILb0EEEEEE:
	.zero	1
	.type	_ZSt10is_final_vIN6ranges14adaptor_cursorIN9__gnu_cxx17__normal_iteratorIPNSt7__cxx1112basic_stringIcSt11char_traitsIcESaIcEEESt6vectorIS9_SaIS9_EEEENS0_19iter_transform_viewINS0_8ref_viewISD_EENS0_10indirectedIZ4mainEUlS9_E_EEE7adaptorILb0EEEEEE, @object
	.size	_ZSt10is_final_vIN6ranges14adaptor_cursorIN9__gnu_cxx17__normal_iteratorIPNSt7__cxx1112basic_stringIcSt11char_traitsIcESaIcEEESt6vectorIS9_SaIS9_EEEENS0_19iter_transform_viewINS0_8ref_viewISD_EENS0_10indirectedIZ4mainEUlS9_E_EEE7adaptorILb0EEEEEE, 1
_ZSt10is_final_vIN6ranges14adaptor_cursorIN9__gnu_cxx17__normal_iteratorIPNSt7__cxx1112basic_stringIcSt11char_traitsIcESaIcEEESt6vectorIS9_SaIS9_EEEENS0_19iter_transform_viewINS0_8ref_viewISD_EENS0_10indirectedIZ4mainEUlS9_E_EEE7adaptorILb0EEEEEE:
	.zero	1
	.type	_ZN8concepts4defs14convertible_toIN6ranges14adaptor_cursorIN9__gnu_cxx17__normal_iteratorIPNSt7__cxx1112basic_stringIcSt11char_traitsIcESaIcEEESt6vectorISB_SaISB_EEEENS2_19iter_transform_viewINS2_8ref_viewISF_EENS2_10indirectedIZ4mainEUlSB_E_EEE7adaptorILb0EEEE19basic_adaptor_mixinESR_EE, @object
	.size	_ZN8concepts4defs14convertible_toIN6ranges14adaptor_cursorIN9__gnu_cxx17__normal_iteratorIPNSt7__cxx1112basic_stringIcSt11char_traitsIcESaIcEEESt6vectorISB_SaISB_EEEENS2_19iter_transform_viewINS2_8ref_viewISF_EENS2_10indirectedIZ4mainEUlSB_E_EEE7adaptorILb0EEEE19basic_adaptor_mixinESR_EE, 1
_ZN8concepts4defs14convertible_toIN6ranges14adaptor_cursorIN9__gnu_cxx17__normal_iteratorIPNSt7__cxx1112basic_stringIcSt11char_traitsIcESaIcEEESt6vectorISB_SaISB_EEEENS2_19iter_transform_viewINS2_8ref_viewISF_EENS2_10indirectedIZ4mainEUlSB_E_EEE7adaptorILb0EEEE19basic_adaptor_mixinESR_EE:
	.byte	1
	.type	_ZN8concepts4defs25implicitly_convertible_toIN6ranges14adaptor_cursorIN9__gnu_cxx17__normal_iteratorIPNSt7__cxx1112basic_stringIcSt11char_traitsIcESaIcEEESt6vectorISB_SaISB_EEEENS2_19iter_transform_viewINS2_8ref_viewISF_EENS2_10indirectedIZ4mainEUlSB_E_EEE7adaptorILb0EEEE19basic_adaptor_mixinESR_EE, @object
	.size	_ZN8concepts4defs25implicitly_convertible_toIN6ranges14adaptor_cursorIN9__gnu_cxx17__normal_iteratorIPNSt7__cxx1112basic_stringIcSt11char_traitsIcESaIcEEESt6vectorISB_SaISB_EEEENS2_19iter_transform_viewINS2_8ref_viewISF_EENS2_10indirectedIZ4mainEUlSB_E_EEE7adaptorILb0EEEE19basic_adaptor_mixinESR_EE, 1
_ZN8concepts4defs25implicitly_convertible_toIN6ranges14adaptor_cursorIN9__gnu_cxx17__normal_iteratorIPNSt7__cxx1112basic_stringIcSt11char_traitsIcESaIcEEESt6vectorISB_SaISB_EEEENS2_19iter_transform_viewINS2_8ref_viewISF_EENS2_10indirectedIZ4mainEUlSB_E_EEE7adaptorILb0EEEE19basic_adaptor_mixinESR_EE:
	.byte	1
	.type	_ZN8concepts4defs25explicitly_convertible_toIN6ranges14adaptor_cursorIN9__gnu_cxx17__normal_iteratorIPNSt7__cxx1112basic_stringIcSt11char_traitsIcESaIcEEESt6vectorISB_SaISB_EEEENS2_19iter_transform_viewINS2_8ref_viewISF_EENS2_10indirectedIZ4mainEUlSB_E_EEE7adaptorILb0EEEE19basic_adaptor_mixinESR_EE, @object
	.size	_ZN8concepts4defs25explicitly_convertible_toIN6ranges14adaptor_cursorIN9__gnu_cxx17__normal_iteratorIPNSt7__cxx1112basic_stringIcSt11char_traitsIcESaIcEEESt6vectorISB_SaISB_EEEENS2_19iter_transform_viewINS2_8ref_viewISF_EENS2_10indirectedIZ4mainEUlSB_E_EEE7adaptorILb0EEEE19basic_adaptor_mixinESR_EE, 1
_ZN8concepts4defs25explicitly_convertible_toIN6ranges14adaptor_cursorIN9__gnu_cxx17__normal_iteratorIPNSt7__cxx1112basic_stringIcSt11char_traitsIcESaIcEEESt6vectorISB_SaISB_EEEENS2_19iter_transform_viewINS2_8ref_viewISF_EENS2_10indirectedIZ4mainEUlSB_E_EEE7adaptorILb0EEEE19basic_adaptor_mixinESR_EE:
	.byte	1
	.type	_ZN8concepts4defs18constructible_fromIN6ranges14adaptor_cursorIN9__gnu_cxx17__normal_iteratorIPNSt7__cxx1112basic_stringIcSt11char_traitsIcESaIcEEESt6vectorISB_SaISB_EEEENS2_19iter_transform_viewINS2_8ref_viewISF_EENS2_10indirectedIZ4mainEUlSB_E_EEE7adaptorILb0EEEE19basic_adaptor_mixinEJRSR_EEE, @object
	.size	_ZN8concepts4defs18constructible_fromIN6ranges14adaptor_cursorIN9__gnu_cxx17__normal_iteratorIPNSt7__cxx1112basic_stringIcSt11char_traitsIcESaIcEEESt6vectorISB_SaISB_EEEENS2_19iter_transform_viewINS2_8ref_viewISF_EENS2_10indirectedIZ4mainEUlSB_E_EEE7adaptorILb0EEEE19basic_adaptor_mixinEJRSR_EEE, 1
_ZN8concepts4defs18constructible_fromIN6ranges14adaptor_cursorIN9__gnu_cxx17__normal_iteratorIPNSt7__cxx1112basic_stringIcSt11char_traitsIcESaIcEEESt6vectorISB_SaISB_EEEENS2_19iter_transform_viewINS2_8ref_viewISF_EENS2_10indirectedIZ4mainEUlSB_E_EEE7adaptorILb0EEEE19basic_adaptor_mixinEJRSR_EEE:
	.byte	1
	.type	_ZN8concepts4defs18constructible_fromIN6ranges14adaptor_cursorIN9__gnu_cxx17__normal_iteratorIPNSt7__cxx1112basic_stringIcSt11char_traitsIcESaIcEEESt6vectorISB_SaISB_EEEENS2_19iter_transform_viewINS2_8ref_viewISF_EENS2_10indirectedIZ4mainEUlSB_E_EEE7adaptorILb0EEEE19basic_adaptor_mixinEJRKSR_EEE, @object
	.size	_ZN8concepts4defs18constructible_fromIN6ranges14adaptor_cursorIN9__gnu_cxx17__normal_iteratorIPNSt7__cxx1112basic_stringIcSt11char_traitsIcESaIcEEESt6vectorISB_SaISB_EEEENS2_19iter_transform_viewINS2_8ref_viewISF_EENS2_10indirectedIZ4mainEUlSB_E_EEE7adaptorILb0EEEE19basic_adaptor_mixinEJRKSR_EEE, 1
_ZN8concepts4defs18constructible_fromIN6ranges14adaptor_cursorIN9__gnu_cxx17__normal_iteratorIPNSt7__cxx1112basic_stringIcSt11char_traitsIcESaIcEEESt6vectorISB_SaISB_EEEENS2_19iter_transform_viewINS2_8ref_viewISF_EENS2_10indirectedIZ4mainEUlSB_E_EEE7adaptorILb0EEEE19basic_adaptor_mixinEJRKSR_EEE:
	.byte	1
	.type	_ZN8concepts4defs18constructible_fromIN6ranges14adaptor_cursorIN9__gnu_cxx17__normal_iteratorIPNSt7__cxx1112basic_stringIcSt11char_traitsIcESaIcEEESt6vectorISB_SaISB_EEEENS2_19iter_transform_viewINS2_8ref_viewISF_EENS2_10indirectedIZ4mainEUlSB_E_EEE7adaptorILb0EEEE19basic_adaptor_mixinEJKSR_EEE, @object
	.size	_ZN8concepts4defs18constructible_fromIN6ranges14adaptor_cursorIN9__gnu_cxx17__normal_iteratorIPNSt7__cxx1112basic_stringIcSt11char_traitsIcESaIcEEESt6vectorISB_SaISB_EEEENS2_19iter_transform_viewINS2_8ref_viewISF_EENS2_10indirectedIZ4mainEUlSB_E_EEE7adaptorILb0EEEE19basic_adaptor_mixinEJKSR_EEE, 1
_ZN8concepts4defs18constructible_fromIN6ranges14adaptor_cursorIN9__gnu_cxx17__normal_iteratorIPNSt7__cxx1112basic_stringIcSt11char_traitsIcESaIcEEESt6vectorISB_SaISB_EEEENS2_19iter_transform_viewINS2_8ref_viewISF_EENS2_10indirectedIZ4mainEUlSB_E_EEE7adaptorILb0EEEE19basic_adaptor_mixinEJKSR_EEE:
	.byte	1
	.type	_ZN8concepts4defs14convertible_toIRN6ranges14adaptor_cursorIN9__gnu_cxx17__normal_iteratorIPNSt7__cxx1112basic_stringIcSt11char_traitsIcESaIcEEESt6vectorISB_SaISB_EEEENS2_19iter_transform_viewINS2_8ref_viewISF_EENS2_10indirectedIZ4mainEUlSB_E_EEE7adaptorILb0EEEE19basic_adaptor_mixinESR_EE, @object
	.size	_ZN8concepts4defs14convertible_toIRN6ranges14adaptor_cursorIN9__gnu_cxx17__normal_iteratorIPNSt7__cxx1112basic_stringIcSt11char_traitsIcESaIcEEESt6vectorISB_SaISB_EEEENS2_19iter_transform_viewINS2_8ref_viewISF_EENS2_10indirectedIZ4mainEUlSB_E_EEE7adaptorILb0EEEE19basic_adaptor_mixinESR_EE, 1
_ZN8concepts4defs14convertible_toIRN6ranges14adaptor_cursorIN9__gnu_cxx17__normal_iteratorIPNSt7__cxx1112basic_stringIcSt11char_traitsIcESaIcEEESt6vectorISB_SaISB_EEEENS2_19iter_transform_viewINS2_8ref_viewISF_EENS2_10indirectedIZ4mainEUlSB_E_EEE7adaptorILb0EEEE19basic_adaptor_mixinESR_EE:
	.byte	1
	.type	_ZN8concepts4defs25implicitly_convertible_toIRN6ranges14adaptor_cursorIN9__gnu_cxx17__normal_iteratorIPNSt7__cxx1112basic_stringIcSt11char_traitsIcESaIcEEESt6vectorISB_SaISB_EEEENS2_19iter_transform_viewINS2_8ref_viewISF_EENS2_10indirectedIZ4mainEUlSB_E_EEE7adaptorILb0EEEE19basic_adaptor_mixinESR_EE, @object
	.size	_ZN8concepts4defs25implicitly_convertible_toIRN6ranges14adaptor_cursorIN9__gnu_cxx17__normal_iteratorIPNSt7__cxx1112basic_stringIcSt11char_traitsIcESaIcEEESt6vectorISB_SaISB_EEEENS2_19iter_transform_viewINS2_8ref_viewISF_EENS2_10indirectedIZ4mainEUlSB_E_EEE7adaptorILb0EEEE19basic_adaptor_mixinESR_EE, 1
_ZN8concepts4defs25implicitly_convertible_toIRN6ranges14adaptor_cursorIN9__gnu_cxx17__normal_iteratorIPNSt7__cxx1112basic_stringIcSt11char_traitsIcESaIcEEESt6vectorISB_SaISB_EEEENS2_19iter_transform_viewINS2_8ref_viewISF_EENS2_10indirectedIZ4mainEUlSB_E_EEE7adaptorILb0EEEE19basic_adaptor_mixinESR_EE:
	.byte	1
	.type	_ZN8concepts4defs25explicitly_convertible_toIRN6ranges14adaptor_cursorIN9__gnu_cxx17__normal_iteratorIPNSt7__cxx1112basic_stringIcSt11char_traitsIcESaIcEEESt6vectorISB_SaISB_EEEENS2_19iter_transform_viewINS2_8ref_viewISF_EENS2_10indirectedIZ4mainEUlSB_E_EEE7adaptorILb0EEEE19basic_adaptor_mixinESR_EE, @object
	.size	_ZN8concepts4defs25explicitly_convertible_toIRN6ranges14adaptor_cursorIN9__gnu_cxx17__normal_iteratorIPNSt7__cxx1112basic_stringIcSt11char_traitsIcESaIcEEESt6vectorISB_SaISB_EEEENS2_19iter_transform_viewINS2_8ref_viewISF_EENS2_10indirectedIZ4mainEUlSB_E_EEE7adaptorILb0EEEE19basic_adaptor_mixinESR_EE, 1
_ZN8concepts4defs25explicitly_convertible_toIRN6ranges14adaptor_cursorIN9__gnu_cxx17__normal_iteratorIPNSt7__cxx1112basic_stringIcSt11char_traitsIcESaIcEEESt6vectorISB_SaISB_EEEENS2_19iter_transform_viewINS2_8ref_viewISF_EENS2_10indirectedIZ4mainEUlSB_E_EEE7adaptorILb0EEEE19basic_adaptor_mixinESR_EE:
	.byte	1
	.type	_ZN8concepts4defs14convertible_toIRKN6ranges14adaptor_cursorIN9__gnu_cxx17__normal_iteratorIPNSt7__cxx1112basic_stringIcSt11char_traitsIcESaIcEEESt6vectorISB_SaISB_EEEENS2_19iter_transform_viewINS2_8ref_viewISF_EENS2_10indirectedIZ4mainEUlSB_E_EEE7adaptorILb0EEEE19basic_adaptor_mixinESR_EE, @object
	.size	_ZN8concepts4defs14convertible_toIRKN6ranges14adaptor_cursorIN9__gnu_cxx17__normal_iteratorIPNSt7__cxx1112basic_stringIcSt11char_traitsIcESaIcEEESt6vectorISB_SaISB_EEEENS2_19iter_transform_viewINS2_8ref_viewISF_EENS2_10indirectedIZ4mainEUlSB_E_EEE7adaptorILb0EEEE19basic_adaptor_mixinESR_EE, 1
_ZN8concepts4defs14convertible_toIRKN6ranges14adaptor_cursorIN9__gnu_cxx17__normal_iteratorIPNSt7__cxx1112basic_stringIcSt11char_traitsIcESaIcEEESt6vectorISB_SaISB_EEEENS2_19iter_transform_viewINS2_8ref_viewISF_EENS2_10indirectedIZ4mainEUlSB_E_EEE7adaptorILb0EEEE19basic_adaptor_mixinESR_EE:
	.byte	1
	.type	_ZN8concepts4defs25implicitly_convertible_toIRKN6ranges14adaptor_cursorIN9__gnu_cxx17__normal_iteratorIPNSt7__cxx1112basic_stringIcSt11char_traitsIcESaIcEEESt6vectorISB_SaISB_EEEENS2_19iter_transform_viewINS2_8ref_viewISF_EENS2_10indirectedIZ4mainEUlSB_E_EEE7adaptorILb0EEEE19basic_adaptor_mixinESR_EE, @object
	.size	_ZN8concepts4defs25implicitly_convertible_toIRKN6ranges14adaptor_cursorIN9__gnu_cxx17__normal_iteratorIPNSt7__cxx1112basic_stringIcSt11char_traitsIcESaIcEEESt6vectorISB_SaISB_EEEENS2_19iter_transform_viewINS2_8ref_viewISF_EENS2_10indirectedIZ4mainEUlSB_E_EEE7adaptorILb0EEEE19basic_adaptor_mixinESR_EE, 1
_ZN8concepts4defs25implicitly_convertible_toIRKN6ranges14adaptor_cursorIN9__gnu_cxx17__normal_iteratorIPNSt7__cxx1112basic_stringIcSt11char_traitsIcESaIcEEESt6vectorISB_SaISB_EEEENS2_19iter_transform_viewINS2_8ref_viewISF_EENS2_10indirectedIZ4mainEUlSB_E_EEE7adaptorILb0EEEE19basic_adaptor_mixinESR_EE:
	.byte	1
	.type	_ZN8concepts4defs25explicitly_convertible_toIRKN6ranges14adaptor_cursorIN9__gnu_cxx17__normal_iteratorIPNSt7__cxx1112basic_stringIcSt11char_traitsIcESaIcEEESt6vectorISB_SaISB_EEEENS2_19iter_transform_viewINS2_8ref_viewISF_EENS2_10indirectedIZ4mainEUlSB_E_EEE7adaptorILb0EEEE19basic_adaptor_mixinESR_EE, @object
	.size	_ZN8concepts4defs25explicitly_convertible_toIRKN6ranges14adaptor_cursorIN9__gnu_cxx17__normal_iteratorIPNSt7__cxx1112basic_stringIcSt11char_traitsIcESaIcEEESt6vectorISB_SaISB_EEEENS2_19iter_transform_viewINS2_8ref_viewISF_EENS2_10indirectedIZ4mainEUlSB_E_EEE7adaptorILb0EEEE19basic_adaptor_mixinESR_EE, 1
_ZN8concepts4defs25explicitly_convertible_toIRKN6ranges14adaptor_cursorIN9__gnu_cxx17__normal_iteratorIPNSt7__cxx1112basic_stringIcSt11char_traitsIcESaIcEEESt6vectorISB_SaISB_EEEENS2_19iter_transform_viewINS2_8ref_viewISF_EENS2_10indirectedIZ4mainEUlSB_E_EEE7adaptorILb0EEEE19basic_adaptor_mixinESR_EE:
	.byte	1
	.type	_ZN8concepts4defs14convertible_toIKN6ranges14adaptor_cursorIN9__gnu_cxx17__normal_iteratorIPNSt7__cxx1112basic_stringIcSt11char_traitsIcESaIcEEESt6vectorISB_SaISB_EEEENS2_19iter_transform_viewINS2_8ref_viewISF_EENS2_10indirectedIZ4mainEUlSB_E_EEE7adaptorILb0EEEE19basic_adaptor_mixinESR_EE, @object
	.size	_ZN8concepts4defs14convertible_toIKN6ranges14adaptor_cursorIN9__gnu_cxx17__normal_iteratorIPNSt7__cxx1112basic_stringIcSt11char_traitsIcESaIcEEESt6vectorISB_SaISB_EEEENS2_19iter_transform_viewINS2_8ref_viewISF_EENS2_10indirectedIZ4mainEUlSB_E_EEE7adaptorILb0EEEE19basic_adaptor_mixinESR_EE, 1
_ZN8concepts4defs14convertible_toIKN6ranges14adaptor_cursorIN9__gnu_cxx17__normal_iteratorIPNSt7__cxx1112basic_stringIcSt11char_traitsIcESaIcEEESt6vectorISB_SaISB_EEEENS2_19iter_transform_viewINS2_8ref_viewISF_EENS2_10indirectedIZ4mainEUlSB_E_EEE7adaptorILb0EEEE19basic_adaptor_mixinESR_EE:
	.byte	1
	.type	_ZN8concepts4defs25implicitly_convertible_toIKN6ranges14adaptor_cursorIN9__gnu_cxx17__normal_iteratorIPNSt7__cxx1112basic_stringIcSt11char_traitsIcESaIcEEESt6vectorISB_SaISB_EEEENS2_19iter_transform_viewINS2_8ref_viewISF_EENS2_10indirectedIZ4mainEUlSB_E_EEE7adaptorILb0EEEE19basic_adaptor_mixinESR_EE, @object
	.size	_ZN8concepts4defs25implicitly_convertible_toIKN6ranges14adaptor_cursorIN9__gnu_cxx17__normal_iteratorIPNSt7__cxx1112basic_stringIcSt11char_traitsIcESaIcEEESt6vectorISB_SaISB_EEEENS2_19iter_transform_viewINS2_8ref_viewISF_EENS2_10indirectedIZ4mainEUlSB_E_EEE7adaptorILb0EEEE19basic_adaptor_mixinESR_EE, 1
_ZN8concepts4defs25implicitly_convertible_toIKN6ranges14adaptor_cursorIN9__gnu_cxx17__normal_iteratorIPNSt7__cxx1112basic_stringIcSt11char_traitsIcESaIcEEESt6vectorISB_SaISB_EEEENS2_19iter_transform_viewINS2_8ref_viewISF_EENS2_10indirectedIZ4mainEUlSB_E_EEE7adaptorILb0EEEE19basic_adaptor_mixinESR_EE:
	.byte	1
	.type	_ZN8concepts4defs25explicitly_convertible_toIKN6ranges14adaptor_cursorIN9__gnu_cxx17__normal_iteratorIPNSt7__cxx1112basic_stringIcSt11char_traitsIcESaIcEEESt6vectorISB_SaISB_EEEENS2_19iter_transform_viewINS2_8ref_viewISF_EENS2_10indirectedIZ4mainEUlSB_E_EEE7adaptorILb0EEEE19basic_adaptor_mixinESR_EE, @object
	.size	_ZN8concepts4defs25explicitly_convertible_toIKN6ranges14adaptor_cursorIN9__gnu_cxx17__normal_iteratorIPNSt7__cxx1112basic_stringIcSt11char_traitsIcESaIcEEESt6vectorISB_SaISB_EEEENS2_19iter_transform_viewINS2_8ref_viewISF_EENS2_10indirectedIZ4mainEUlSB_E_EEE7adaptorILb0EEEE19basic_adaptor_mixinESR_EE, 1
_ZN8concepts4defs25explicitly_convertible_toIKN6ranges14adaptor_cursorIN9__gnu_cxx17__normal_iteratorIPNSt7__cxx1112basic_stringIcSt11char_traitsIcESaIcEEESt6vectorISB_SaISB_EEEENS2_19iter_transform_viewINS2_8ref_viewISF_EENS2_10indirectedIZ4mainEUlSB_E_EEE7adaptorILb0EEEE19basic_adaptor_mixinESR_EE:
	.byte	1
	.type	_ZN8concepts4defs7movableIN6ranges14adaptor_cursorIN9__gnu_cxx17__normal_iteratorIPNSt7__cxx1112basic_stringIcSt11char_traitsIcESaIcEEESt6vectorISB_SaISB_EEEENS2_19iter_transform_viewINS2_8ref_viewISF_EENS2_10indirectedIZ4mainEUlSB_E_EEE7adaptorILb0EEEE19basic_adaptor_mixinEEE, @object
	.size	_ZN8concepts4defs7movableIN6ranges14adaptor_cursorIN9__gnu_cxx17__normal_iteratorIPNSt7__cxx1112basic_stringIcSt11char_traitsIcESaIcEEESt6vectorISB_SaISB_EEEENS2_19iter_transform_viewINS2_8ref_viewISF_EENS2_10indirectedIZ4mainEUlSB_E_EEE7adaptorILb0EEEE19basic_adaptor_mixinEEE, 1
_ZN8concepts4defs7movableIN6ranges14adaptor_cursorIN9__gnu_cxx17__normal_iteratorIPNSt7__cxx1112basic_stringIcSt11char_traitsIcESaIcEEESt6vectorISB_SaISB_EEEENS2_19iter_transform_viewINS2_8ref_viewISF_EENS2_10indirectedIZ4mainEUlSB_E_EEE7adaptorILb0EEEE19basic_adaptor_mixinEEE:
	.byte	1
	.type	_ZN8concepts4defs15assignable_fromIRN6ranges14adaptor_cursorIN9__gnu_cxx17__normal_iteratorIPNSt7__cxx1112basic_stringIcSt11char_traitsIcESaIcEEESt6vectorISB_SaISB_EEEENS2_19iter_transform_viewINS2_8ref_viewISF_EENS2_10indirectedIZ4mainEUlSB_E_EEE7adaptorILb0EEEE19basic_adaptor_mixinESR_EE, @object
	.size	_ZN8concepts4defs15assignable_fromIRN6ranges14adaptor_cursorIN9__gnu_cxx17__normal_iteratorIPNSt7__cxx1112basic_stringIcSt11char_traitsIcESaIcEEESt6vectorISB_SaISB_EEEENS2_19iter_transform_viewINS2_8ref_viewISF_EENS2_10indirectedIZ4mainEUlSB_E_EEE7adaptorILb0EEEE19basic_adaptor_mixinESR_EE, 1
_ZN8concepts4defs15assignable_fromIRN6ranges14adaptor_cursorIN9__gnu_cxx17__normal_iteratorIPNSt7__cxx1112basic_stringIcSt11char_traitsIcESaIcEEESt6vectorISB_SaISB_EEEENS2_19iter_transform_viewINS2_8ref_viewISF_EENS2_10indirectedIZ4mainEUlSB_E_EEE7adaptorILb0EEEE19basic_adaptor_mixinESR_EE:
	.byte	1
	.type	_ZN8concepts4defs21common_reference_withIRKN6ranges14adaptor_cursorIN9__gnu_cxx17__normal_iteratorIPNSt7__cxx1112basic_stringIcSt11char_traitsIcESaIcEEESt6vectorISB_SaISB_EEEENS2_19iter_transform_viewINS2_8ref_viewISF_EENS2_10indirectedIZ4mainEUlSB_E_EEE7adaptorILb0EEEE19basic_adaptor_mixinEST_EE, @object
	.size	_ZN8concepts4defs21common_reference_withIRKN6ranges14adaptor_cursorIN9__gnu_cxx17__normal_iteratorIPNSt7__cxx1112basic_stringIcSt11char_traitsIcESaIcEEESt6vectorISB_SaISB_EEEENS2_19iter_transform_viewINS2_8ref_viewISF_EENS2_10indirectedIZ4mainEUlSB_E_EEE7adaptorILb0EEEE19basic_adaptor_mixinEST_EE, 1
_ZN8concepts4defs21common_reference_withIRKN6ranges14adaptor_cursorIN9__gnu_cxx17__normal_iteratorIPNSt7__cxx1112basic_stringIcSt11char_traitsIcESaIcEEESt6vectorISB_SaISB_EEEENS2_19iter_transform_viewINS2_8ref_viewISF_EENS2_10indirectedIZ4mainEUlSB_E_EEE7adaptorILb0EEEE19basic_adaptor_mixinEST_EE:
	.byte	1
	.type	_ZN8concepts4defs7same_asIRKN6ranges14adaptor_cursorIN9__gnu_cxx17__normal_iteratorIPNSt7__cxx1112basic_stringIcSt11char_traitsIcESaIcEEESt6vectorISB_SaISB_EEEENS2_19iter_transform_viewINS2_8ref_viewISF_EENS2_10indirectedIZ4mainEUlSB_E_EEE7adaptorILb0EEEE19basic_adaptor_mixinEST_EE, @object
	.size	_ZN8concepts4defs7same_asIRKN6ranges14adaptor_cursorIN9__gnu_cxx17__normal_iteratorIPNSt7__cxx1112basic_stringIcSt11char_traitsIcESaIcEEESt6vectorISB_SaISB_EEEENS2_19iter_transform_viewINS2_8ref_viewISF_EENS2_10indirectedIZ4mainEUlSB_E_EEE7adaptorILb0EEEE19basic_adaptor_mixinEST_EE, 1
_ZN8concepts4defs7same_asIRKN6ranges14adaptor_cursorIN9__gnu_cxx17__normal_iteratorIPNSt7__cxx1112basic_stringIcSt11char_traitsIcESaIcEEESt6vectorISB_SaISB_EEEENS2_19iter_transform_viewINS2_8ref_viewISF_EENS2_10indirectedIZ4mainEUlSB_E_EEE7adaptorILb0EEEE19basic_adaptor_mixinEST_EE:
	.byte	1
	.type	_ZN8concepts4defs14convertible_toIRKN6ranges14adaptor_cursorIN9__gnu_cxx17__normal_iteratorIPNSt7__cxx1112basic_stringIcSt11char_traitsIcESaIcEEESt6vectorISB_SaISB_EEEENS2_19iter_transform_viewINS2_8ref_viewISF_EENS2_10indirectedIZ4mainEUlSB_E_EEE7adaptorILb0EEEE19basic_adaptor_mixinEST_EE, @object
	.size	_ZN8concepts4defs14convertible_toIRKN6ranges14adaptor_cursorIN9__gnu_cxx17__normal_iteratorIPNSt7__cxx1112basic_stringIcSt11char_traitsIcESaIcEEESt6vectorISB_SaISB_EEEENS2_19iter_transform_viewINS2_8ref_viewISF_EENS2_10indirectedIZ4mainEUlSB_E_EEE7adaptorILb0EEEE19basic_adaptor_mixinEST_EE, 1
_ZN8concepts4defs14convertible_toIRKN6ranges14adaptor_cursorIN9__gnu_cxx17__normal_iteratorIPNSt7__cxx1112basic_stringIcSt11char_traitsIcESaIcEEESt6vectorISB_SaISB_EEEENS2_19iter_transform_viewINS2_8ref_viewISF_EENS2_10indirectedIZ4mainEUlSB_E_EEE7adaptorILb0EEEE19basic_adaptor_mixinEST_EE:
	.byte	1
	.type	_ZN8concepts4defs25implicitly_convertible_toIRKN6ranges14adaptor_cursorIN9__gnu_cxx17__normal_iteratorIPNSt7__cxx1112basic_stringIcSt11char_traitsIcESaIcEEESt6vectorISB_SaISB_EEEENS2_19iter_transform_viewINS2_8ref_viewISF_EENS2_10indirectedIZ4mainEUlSB_E_EEE7adaptorILb0EEEE19basic_adaptor_mixinEST_EE, @object
	.size	_ZN8concepts4defs25implicitly_convertible_toIRKN6ranges14adaptor_cursorIN9__gnu_cxx17__normal_iteratorIPNSt7__cxx1112basic_stringIcSt11char_traitsIcESaIcEEESt6vectorISB_SaISB_EEEENS2_19iter_transform_viewINS2_8ref_viewISF_EENS2_10indirectedIZ4mainEUlSB_E_EEE7adaptorILb0EEEE19basic_adaptor_mixinEST_EE, 1
_ZN8concepts4defs25implicitly_convertible_toIRKN6ranges14adaptor_cursorIN9__gnu_cxx17__normal_iteratorIPNSt7__cxx1112basic_stringIcSt11char_traitsIcESaIcEEESt6vectorISB_SaISB_EEEENS2_19iter_transform_viewINS2_8ref_viewISF_EENS2_10indirectedIZ4mainEUlSB_E_EEE7adaptorILb0EEEE19basic_adaptor_mixinEST_EE:
	.byte	1
	.type	_ZN8concepts4defs25explicitly_convertible_toIRKN6ranges14adaptor_cursorIN9__gnu_cxx17__normal_iteratorIPNSt7__cxx1112basic_stringIcSt11char_traitsIcESaIcEEESt6vectorISB_SaISB_EEEENS2_19iter_transform_viewINS2_8ref_viewISF_EENS2_10indirectedIZ4mainEUlSB_E_EEE7adaptorILb0EEEE19basic_adaptor_mixinEST_EE, @object
	.size	_ZN8concepts4defs25explicitly_convertible_toIRKN6ranges14adaptor_cursorIN9__gnu_cxx17__normal_iteratorIPNSt7__cxx1112basic_stringIcSt11char_traitsIcESaIcEEESt6vectorISB_SaISB_EEEENS2_19iter_transform_viewINS2_8ref_viewISF_EENS2_10indirectedIZ4mainEUlSB_E_EEE7adaptorILb0EEEE19basic_adaptor_mixinEST_EE, 1
_ZN8concepts4defs25explicitly_convertible_toIRKN6ranges14adaptor_cursorIN9__gnu_cxx17__normal_iteratorIPNSt7__cxx1112basic_stringIcSt11char_traitsIcESaIcEEESt6vectorISB_SaISB_EEEENS2_19iter_transform_viewINS2_8ref_viewISF_EENS2_10indirectedIZ4mainEUlSB_E_EEE7adaptorILb0EEEE19basic_adaptor_mixinEST_EE:
	.byte	1
	.type	_ZN8concepts4defs7same_asIRN6ranges14adaptor_cursorIN9__gnu_cxx17__normal_iteratorIPNSt7__cxx1112basic_stringIcSt11char_traitsIcESaIcEEESt6vectorISB_SaISB_EEEENS2_19iter_transform_viewINS2_8ref_viewISF_EENS2_10indirectedIZ4mainEUlSB_E_EEE7adaptorILb0EEEE19basic_adaptor_mixinESS_EE, @object
	.size	_ZN8concepts4defs7same_asIRN6ranges14adaptor_cursorIN9__gnu_cxx17__normal_iteratorIPNSt7__cxx1112basic_stringIcSt11char_traitsIcESaIcEEESt6vectorISB_SaISB_EEEENS2_19iter_transform_viewINS2_8ref_viewISF_EENS2_10indirectedIZ4mainEUlSB_E_EEE7adaptorILb0EEEE19basic_adaptor_mixinESS_EE, 1
_ZN8concepts4defs7same_asIRN6ranges14adaptor_cursorIN9__gnu_cxx17__normal_iteratorIPNSt7__cxx1112basic_stringIcSt11char_traitsIcESaIcEEESt6vectorISB_SaISB_EEEENS2_19iter_transform_viewINS2_8ref_viewISF_EENS2_10indirectedIZ4mainEUlSB_E_EEE7adaptorILb0EEEE19basic_adaptor_mixinESS_EE:
	.byte	1
	.type	_ZN8concepts4defs9swappableIN6ranges14adaptor_cursorIN9__gnu_cxx17__normal_iteratorIPNSt7__cxx1112basic_stringIcSt11char_traitsIcESaIcEEESt6vectorISB_SaISB_EEEENS2_19iter_transform_viewINS2_8ref_viewISF_EENS2_10indirectedIZ4mainEUlSB_E_EEE7adaptorILb0EEEE19basic_adaptor_mixinEEE, @object
	.size	_ZN8concepts4defs9swappableIN6ranges14adaptor_cursorIN9__gnu_cxx17__normal_iteratorIPNSt7__cxx1112basic_stringIcSt11char_traitsIcESaIcEEESt6vectorISB_SaISB_EEEENS2_19iter_transform_viewINS2_8ref_viewISF_EENS2_10indirectedIZ4mainEUlSB_E_EEE7adaptorILb0EEEE19basic_adaptor_mixinEEE, 1
_ZN8concepts4defs9swappableIN6ranges14adaptor_cursorIN9__gnu_cxx17__normal_iteratorIPNSt7__cxx1112basic_stringIcSt11char_traitsIcESaIcEEESt6vectorISB_SaISB_EEEENS2_19iter_transform_viewINS2_8ref_viewISF_EENS2_10indirectedIZ4mainEUlSB_E_EEE7adaptorILb0EEEE19basic_adaptor_mixinEEE:
	.byte	1
	.type	_ZN8concepts15adl_swap_detail18is_adl_swappable_vIRN6ranges14adaptor_cursorIN9__gnu_cxx17__normal_iteratorIPNSt7__cxx1112basic_stringIcSt11char_traitsIcESaIcEEESt6vectorISB_SaISB_EEEENS2_19iter_transform_viewINS2_8ref_viewISF_EENS2_10indirectedIZ4mainEUlSB_E_EEE7adaptorILb0EEEE19basic_adaptor_mixinESS_EE, @object
	.size	_ZN8concepts15adl_swap_detail18is_adl_swappable_vIRN6ranges14adaptor_cursorIN9__gnu_cxx17__normal_iteratorIPNSt7__cxx1112basic_stringIcSt11char_traitsIcESaIcEEESt6vectorISB_SaISB_EEEENS2_19iter_transform_viewINS2_8ref_viewISF_EENS2_10indirectedIZ4mainEUlSB_E_EEE7adaptorILb0EEEE19basic_adaptor_mixinESS_EE, 1
_ZN8concepts15adl_swap_detail18is_adl_swappable_vIRN6ranges14adaptor_cursorIN9__gnu_cxx17__normal_iteratorIPNSt7__cxx1112basic_stringIcSt11char_traitsIcESaIcEEESt6vectorISB_SaISB_EEEENS2_19iter_transform_viewINS2_8ref_viewISF_EENS2_10indirectedIZ4mainEUlSB_E_EEE7adaptorILb0EEEE19basic_adaptor_mixinESS_EE:
	.zero	1
	.type	_ZN8concepts6detail12is_movable_vIN6ranges14adaptor_cursorIN9__gnu_cxx17__normal_iteratorIPNSt7__cxx1112basic_stringIcSt11char_traitsIcESaIcEEESt6vectorISB_SaISB_EEEENS2_19iter_transform_viewINS2_8ref_viewISF_EENS2_10indirectedIZ4mainEUlSB_E_EEE7adaptorILb0EEEE19basic_adaptor_mixinEEE, @object
	.size	_ZN8concepts6detail12is_movable_vIN6ranges14adaptor_cursorIN9__gnu_cxx17__normal_iteratorIPNSt7__cxx1112basic_stringIcSt11char_traitsIcESaIcEEESt6vectorISB_SaISB_EEEENS2_19iter_transform_viewINS2_8ref_viewISF_EENS2_10indirectedIZ4mainEUlSB_E_EEE7adaptorILb0EEEE19basic_adaptor_mixinEEE, 1
_ZN8concepts6detail12is_movable_vIN6ranges14adaptor_cursorIN9__gnu_cxx17__normal_iteratorIPNSt7__cxx1112basic_stringIcSt11char_traitsIcESaIcEEESt6vectorISB_SaISB_EEEENS2_19iter_transform_viewINS2_8ref_viewISF_EENS2_10indirectedIZ4mainEUlSB_E_EEE7adaptorILb0EEEE19basic_adaptor_mixinEEE:
	.byte	1
	.type	_ZN8concepts4defs15assignable_fromIRN6ranges14adaptor_cursorIN9__gnu_cxx17__normal_iteratorIPNSt7__cxx1112basic_stringIcSt11char_traitsIcESaIcEEESt6vectorISB_SaISB_EEEENS2_19iter_transform_viewINS2_8ref_viewISF_EENS2_10indirectedIZ4mainEUlSB_E_EEE7adaptorILb0EEEE19basic_adaptor_mixinERKSR_EE, @object
	.size	_ZN8concepts4defs15assignable_fromIRN6ranges14adaptor_cursorIN9__gnu_cxx17__normal_iteratorIPNSt7__cxx1112basic_stringIcSt11char_traitsIcESaIcEEESt6vectorISB_SaISB_EEEENS2_19iter_transform_viewINS2_8ref_viewISF_EENS2_10indirectedIZ4mainEUlSB_E_EEE7adaptorILb0EEEE19basic_adaptor_mixinERKSR_EE, 1
_ZN8concepts4defs15assignable_fromIRN6ranges14adaptor_cursorIN9__gnu_cxx17__normal_iteratorIPNSt7__cxx1112basic_stringIcSt11char_traitsIcESaIcEEESt6vectorISB_SaISB_EEEENS2_19iter_transform_viewINS2_8ref_viewISF_EENS2_10indirectedIZ4mainEUlSB_E_EEE7adaptorILb0EEEE19basic_adaptor_mixinERKSR_EE:
	.byte	1
	.type	_ZN8concepts4defs21default_constructibleIN6ranges14adaptor_cursorIN9__gnu_cxx17__normal_iteratorIPNSt7__cxx1112basic_stringIcSt11char_traitsIcESaIcEEESt6vectorISB_SaISB_EEEENS2_19iter_transform_viewINS2_8ref_viewISF_EENS2_10indirectedIZ4mainEUlSB_E_EEE7adaptorILb0EEEE19basic_adaptor_mixinEEE, @object
	.size	_ZN8concepts4defs21default_constructibleIN6ranges14adaptor_cursorIN9__gnu_cxx17__normal_iteratorIPNSt7__cxx1112basic_stringIcSt11char_traitsIcESaIcEEESt6vectorISB_SaISB_EEEENS2_19iter_transform_viewINS2_8ref_viewISF_EENS2_10indirectedIZ4mainEUlSB_E_EEE7adaptorILb0EEEE19basic_adaptor_mixinEEE, 1
_ZN8concepts4defs21default_constructibleIN6ranges14adaptor_cursorIN9__gnu_cxx17__normal_iteratorIPNSt7__cxx1112basic_stringIcSt11char_traitsIcESaIcEEESt6vectorISB_SaISB_EEEENS2_19iter_transform_viewINS2_8ref_viewISF_EENS2_10indirectedIZ4mainEUlSB_E_EEE7adaptorILb0EEEE19basic_adaptor_mixinEEE:
	.byte	1
	.type	_ZN8concepts4defs18constructible_fromIN6ranges14adaptor_cursorIN9__gnu_cxx17__normal_iteratorIPNSt7__cxx1112basic_stringIcSt11char_traitsIcESaIcEEESt6vectorISB_SaISB_EEEENS2_19iter_transform_viewINS2_8ref_viewISF_EENS2_10indirectedIZ4mainEUlSB_E_EEE7adaptorILb0EEEE19basic_adaptor_mixinEJEEE, @object
	.size	_ZN8concepts4defs18constructible_fromIN6ranges14adaptor_cursorIN9__gnu_cxx17__normal_iteratorIPNSt7__cxx1112basic_stringIcSt11char_traitsIcESaIcEEESt6vectorISB_SaISB_EEEENS2_19iter_transform_viewINS2_8ref_viewISF_EENS2_10indirectedIZ4mainEUlSB_E_EEE7adaptorILb0EEEE19basic_adaptor_mixinEJEEE, 1
_ZN8concepts4defs18constructible_fromIN6ranges14adaptor_cursorIN9__gnu_cxx17__normal_iteratorIPNSt7__cxx1112basic_stringIcSt11char_traitsIcESaIcEEESt6vectorISB_SaISB_EEEENS2_19iter_transform_viewINS2_8ref_viewISF_EENS2_10indirectedIZ4mainEUlSB_E_EEE7adaptorILb0EEEE19basic_adaptor_mixinEJEEE:
	.byte	1
	.type	_ZN8concepts4defs18constructible_fromIN6ranges14adaptor_cursorIN9__gnu_cxx17__normal_iteratorIPNSt7__cxx1112basic_stringIcSt11char_traitsIcESaIcEEESt6vectorISB_SaISB_EEEENS2_19iter_transform_viewINS2_8ref_viewISF_EENS2_10indirectedIZ4mainEUlSB_E_EEE7adaptorILb0EEEE19basic_adaptor_mixinEJSQ_EEE, @object
	.size	_ZN8concepts4defs18constructible_fromIN6ranges14adaptor_cursorIN9__gnu_cxx17__normal_iteratorIPNSt7__cxx1112basic_stringIcSt11char_traitsIcESaIcEEESt6vectorISB_SaISB_EEEENS2_19iter_transform_viewINS2_8ref_viewISF_EENS2_10indirectedIZ4mainEUlSB_E_EEE7adaptorILb0EEEE19basic_adaptor_mixinEJSQ_EEE, 1
_ZN8concepts4defs18constructible_fromIN6ranges14adaptor_cursorIN9__gnu_cxx17__normal_iteratorIPNSt7__cxx1112basic_stringIcSt11char_traitsIcESaIcEEESt6vectorISB_SaISB_EEEENS2_19iter_transform_viewINS2_8ref_viewISF_EENS2_10indirectedIZ4mainEUlSB_E_EEE7adaptorILb0EEEE19basic_adaptor_mixinEJSQ_EEE:
	.byte	1
	.type	_ZN8concepts4defs18constructible_fromIN6ranges14adaptor_cursorIN9__gnu_cxx17__normal_iteratorIPNSt7__cxx1112basic_stringIcSt11char_traitsIcESaIcEEESt6vectorISB_SaISB_EEEENS2_19iter_transform_viewINS2_8ref_viewISF_EENS2_10indirectedIZ4mainEUlSB_E_EEE7adaptorILb0EEEE19basic_adaptor_mixinEJRKSQ_EEE, @object
	.size	_ZN8concepts4defs18constructible_fromIN6ranges14adaptor_cursorIN9__gnu_cxx17__normal_iteratorIPNSt7__cxx1112basic_stringIcSt11char_traitsIcESaIcEEESt6vectorISB_SaISB_EEEENS2_19iter_transform_viewINS2_8ref_viewISF_EENS2_10indirectedIZ4mainEUlSB_E_EEE7adaptorILb0EEEE19basic_adaptor_mixinEJRKSQ_EEE, 1
_ZN8concepts4defs18constructible_fromIN6ranges14adaptor_cursorIN9__gnu_cxx17__normal_iteratorIPNSt7__cxx1112basic_stringIcSt11char_traitsIcESaIcEEESt6vectorISB_SaISB_EEEENS2_19iter_transform_viewINS2_8ref_viewISF_EENS2_10indirectedIZ4mainEUlSB_E_EEE7adaptorILb0EEEE19basic_adaptor_mixinEJRKSQ_EEE:
	.byte	1
	.type	_ZN6ranges6detail15has_cursor_nextINS_14adaptor_cursorIN9__gnu_cxx17__normal_iteratorIPNSt7__cxx1112basic_stringIcSt11char_traitsIcESaIcEEESt6vectorISA_SaISA_EEEENS_19iter_transform_viewINS_8ref_viewISE_EENS_10indirectedIZ4mainEUlSA_E_EEE7adaptorILb0EEEEEEE, @object
	.size	_ZN6ranges6detail15has_cursor_nextINS_14adaptor_cursorIN9__gnu_cxx17__normal_iteratorIPNSt7__cxx1112basic_stringIcSt11char_traitsIcESaIcEEESt6vectorISA_SaISA_EEEENS_19iter_transform_viewINS_8ref_viewISE_EENS_10indirectedIZ4mainEUlSA_E_EEE7adaptorILb0EEEEEEE, 1
_ZN6ranges6detail15has_cursor_nextINS_14adaptor_cursorIN9__gnu_cxx17__normal_iteratorIPNSt7__cxx1112basic_stringIcSt11char_traitsIcESaIcEEESt6vectorISA_SaISA_EEEENS_19iter_transform_viewINS_8ref_viewISE_EENS_10indirectedIZ4mainEUlSA_E_EEE7adaptorILb0EEEEEEE:
	.byte	1
	.type	_ZN6ranges6detail19sentinel_for_cursorINS_14adaptor_cursorIN9__gnu_cxx17__normal_iteratorIPNSt7__cxx1112basic_stringIcSt11char_traitsIcESaIcEEESt6vectorISA_SaISA_EEEENS_19iter_transform_viewINS_8ref_viewISE_EENS_10indirectedIZ4mainEUlSA_E_EEE7adaptorILb0EEEEESP_EE, @object
	.size	_ZN6ranges6detail19sentinel_for_cursorINS_14adaptor_cursorIN9__gnu_cxx17__normal_iteratorIPNSt7__cxx1112basic_stringIcSt11char_traitsIcESaIcEEESt6vectorISA_SaISA_EEEENS_19iter_transform_viewINS_8ref_viewISE_EENS_10indirectedIZ4mainEUlSA_E_EEE7adaptorILb0EEEEESP_EE, 1
_ZN6ranges6detail19sentinel_for_cursorINS_14adaptor_cursorIN9__gnu_cxx17__normal_iteratorIPNSt7__cxx1112basic_stringIcSt11char_traitsIcESaIcEEESt6vectorISA_SaISA_EEEENS_19iter_transform_viewINS_8ref_viewISE_EENS_10indirectedIZ4mainEUlSA_E_EEE7adaptorILb0EEEEESP_EE:
	.byte	1
	.type	_ZN6ranges6detail20random_access_cursorINS_14adaptor_cursorIN9__gnu_cxx17__normal_iteratorIPNSt7__cxx1112basic_stringIcSt11char_traitsIcESaIcEEESt6vectorISA_SaISA_EEEENS_19iter_transform_viewINS_8ref_viewISE_EENS_10indirectedIZ4mainEUlSA_E_EEE7adaptorILb0EEEEEEE, @object
	.size	_ZN6ranges6detail20random_access_cursorINS_14adaptor_cursorIN9__gnu_cxx17__normal_iteratorIPNSt7__cxx1112basic_stringIcSt11char_traitsIcESaIcEEESt6vectorISA_SaISA_EEEENS_19iter_transform_viewINS_8ref_viewISE_EENS_10indirectedIZ4mainEUlSA_E_EEE7adaptorILb0EEEEEEE, 1
_ZN6ranges6detail20random_access_cursorINS_14adaptor_cursorIN9__gnu_cxx17__normal_iteratorIPNSt7__cxx1112basic_stringIcSt11char_traitsIcESaIcEEESt6vectorISA_SaISA_EEEENS_19iter_transform_viewINS_8ref_viewISE_EENS_10indirectedIZ4mainEUlSA_E_EEE7adaptorILb0EEEEEEE:
	.byte	1
	.type	_ZN6ranges6detail20bidirectional_cursorINS_14adaptor_cursorIN9__gnu_cxx17__normal_iteratorIPNSt7__cxx1112basic_stringIcSt11char_traitsIcESaIcEEESt6vectorISA_SaISA_EEEENS_19iter_transform_viewINS_8ref_viewISE_EENS_10indirectedIZ4mainEUlSA_E_EEE7adaptorILb0EEEEEEE, @object
	.size	_ZN6ranges6detail20bidirectional_cursorINS_14adaptor_cursorIN9__gnu_cxx17__normal_iteratorIPNSt7__cxx1112basic_stringIcSt11char_traitsIcESaIcEEESt6vectorISA_SaISA_EEEENS_19iter_transform_viewINS_8ref_viewISE_EENS_10indirectedIZ4mainEUlSA_E_EEE7adaptorILb0EEEEEEE, 1
_ZN6ranges6detail20bidirectional_cursorINS_14adaptor_cursorIN9__gnu_cxx17__normal_iteratorIPNSt7__cxx1112basic_stringIcSt11char_traitsIcESaIcEEESt6vectorISA_SaISA_EEEENS_19iter_transform_viewINS_8ref_viewISE_EENS_10indirectedIZ4mainEUlSA_E_EEE7adaptorILb0EEEEEEE:
	.byte	1
	.type	_ZN6ranges6detail14forward_cursorINS_14adaptor_cursorIN9__gnu_cxx17__normal_iteratorIPNSt7__cxx1112basic_stringIcSt11char_traitsIcESaIcEEESt6vectorISA_SaISA_EEEENS_19iter_transform_viewINS_8ref_viewISE_EENS_10indirectedIZ4mainEUlSA_E_EEE7adaptorILb0EEEEEEE, @object
	.size	_ZN6ranges6detail14forward_cursorINS_14adaptor_cursorIN9__gnu_cxx17__normal_iteratorIPNSt7__cxx1112basic_stringIcSt11char_traitsIcESaIcEEESt6vectorISA_SaISA_EEEENS_19iter_transform_viewINS_8ref_viewISE_EENS_10indirectedIZ4mainEUlSA_E_EEE7adaptorILb0EEEEEEE, 1
_ZN6ranges6detail14forward_cursorINS_14adaptor_cursorIN9__gnu_cxx17__normal_iteratorIPNSt7__cxx1112basic_stringIcSt11char_traitsIcESaIcEEESt6vectorISA_SaISA_EEEENS_19iter_transform_viewINS_8ref_viewISE_EENS_10indirectedIZ4mainEUlSA_E_EEE7adaptorILb0EEEEEEE:
	.byte	1
	.type	_ZN6ranges6detail25sized_sentinel_for_cursorINS_14adaptor_cursorIN9__gnu_cxx17__normal_iteratorIPNSt7__cxx1112basic_stringIcSt11char_traitsIcESaIcEEESt6vectorISA_SaISA_EEEENS_19iter_transform_viewINS_8ref_viewISE_EENS_10indirectedIZ4mainEUlSA_E_EEE7adaptorILb0EEEEESP_EE, @object
	.size	_ZN6ranges6detail25sized_sentinel_for_cursorINS_14adaptor_cursorIN9__gnu_cxx17__normal_iteratorIPNSt7__cxx1112basic_stringIcSt11char_traitsIcESaIcEEESt6vectorISA_SaISA_EEEENS_19iter_transform_viewINS_8ref_viewISE_EENS_10indirectedIZ4mainEUlSA_E_EEE7adaptorILb0EEEEESP_EE, 1
_ZN6ranges6detail25sized_sentinel_for_cursorINS_14adaptor_cursorIN9__gnu_cxx17__normal_iteratorIPNSt7__cxx1112basic_stringIcSt11char_traitsIcESaIcEEESt6vectorISA_SaISA_EEEENS_19iter_transform_viewINS_8ref_viewISE_EENS_10indirectedIZ4mainEUlSA_E_EEE7adaptorILb0EEEEESP_EE:
	.byte	1
	.type	_ZN6ranges6detail20cpp17_forward_cursorINS_14adaptor_cursorIN9__gnu_cxx17__normal_iteratorIPNSt7__cxx1112basic_stringIcSt11char_traitsIcESaIcEEESt6vectorISA_SaISA_EEEENS_19iter_transform_viewINS_8ref_viewISE_EENS_10indirectedIZ4mainEUlSA_E_EEE7adaptorILb0EEEEEEE, @object
	.size	_ZN6ranges6detail20cpp17_forward_cursorINS_14adaptor_cursorIN9__gnu_cxx17__normal_iteratorIPNSt7__cxx1112basic_stringIcSt11char_traitsIcESaIcEEESt6vectorISA_SaISA_EEEENS_19iter_transform_viewINS_8ref_viewISE_EENS_10indirectedIZ4mainEUlSA_E_EEE7adaptorILb0EEEEEEE, 1
_ZN6ranges6detail20cpp17_forward_cursorINS_14adaptor_cursorIN9__gnu_cxx17__normal_iteratorIPNSt7__cxx1112basic_stringIcSt11char_traitsIcESaIcEEESt6vectorISA_SaISA_EEEENS_19iter_transform_viewINS_8ref_viewISE_EENS_10indirectedIZ4mainEUlSA_E_EEE7adaptorILb0EEEEEEE:
	.zero	1
	.type	_ZN6ranges6detail20is_writable_cursor_vIKNS_14adaptor_cursorIN9__gnu_cxx17__normal_iteratorIPNSt7__cxx1112basic_stringIcSt11char_traitsIcESaIcEEESt6vectorISA_SaISA_EEEENS_19iter_transform_viewINS_8ref_viewISE_EENS_10indirectedIZ4mainEUlSA_E_EEE7adaptorILb0EEEEEEE, @object
	.size	_ZN6ranges6detail20is_writable_cursor_vIKNS_14adaptor_cursorIN9__gnu_cxx17__normal_iteratorIPNSt7__cxx1112basic_stringIcSt11char_traitsIcESaIcEEESt6vectorISA_SaISA_EEEENS_19iter_transform_viewINS_8ref_viewISE_EENS_10indirectedIZ4mainEUlSA_E_EEE7adaptorILb0EEEEEEE, 1
_ZN6ranges6detail20is_writable_cursor_vIKNS_14adaptor_cursorIN9__gnu_cxx17__normal_iteratorIPNSt7__cxx1112basic_stringIcSt11char_traitsIcESaIcEEESt6vectorISA_SaISA_EEEENS_19iter_transform_viewINS_8ref_viewISE_EENS_10indirectedIZ4mainEUlSA_E_EEE7adaptorILb0EEEEEEE:
	.zero	1
	.type	_ZN6ranges6detail15readable_cursorIKNS_14adaptor_cursorIN9__gnu_cxx17__normal_iteratorIPNSt7__cxx1112basic_stringIcSt11char_traitsIcESaIcEEESt6vectorISA_SaISA_EEEENS_19iter_transform_viewINS_8ref_viewISE_EENS_10indirectedIZ4mainEUlSA_E_EEE7adaptorILb0EEEEEEE, @object
	.size	_ZN6ranges6detail15readable_cursorIKNS_14adaptor_cursorIN9__gnu_cxx17__normal_iteratorIPNSt7__cxx1112basic_stringIcSt11char_traitsIcESaIcEEESt6vectorISA_SaISA_EEEENS_19iter_transform_viewINS_8ref_viewISE_EENS_10indirectedIZ4mainEUlSA_E_EEE7adaptorILb0EEEEEEE, 1
_ZN6ranges6detail15readable_cursorIKNS_14adaptor_cursorIN9__gnu_cxx17__normal_iteratorIPNSt7__cxx1112basic_stringIcSt11char_traitsIcESaIcEEESt6vectorISA_SaISA_EEEENS_19iter_transform_viewINS_8ref_viewISE_EENS_10indirectedIZ4mainEUlSA_E_EEE7adaptorILb0EEEEEEE:
	.byte	1
	.type	_ZN6ranges6detail19is_writable_cursor_IKNS_14adaptor_cursorIN9__gnu_cxx17__normal_iteratorIPNSt7__cxx1112basic_stringIcSt11char_traitsIcESaIcEEESt6vectorISA_SaISA_EEEENS_19iter_transform_viewINS_8ref_viewISE_EENS_10indirectedIZ4mainEUlSA_E_EEE7adaptorILb0EEEEELb1EEE, @object
	.size	_ZN6ranges6detail19is_writable_cursor_IKNS_14adaptor_cursorIN9__gnu_cxx17__normal_iteratorIPNSt7__cxx1112basic_stringIcSt11char_traitsIcESaIcEEESt6vectorISA_SaISA_EEEENS_19iter_transform_viewINS_8ref_viewISE_EENS_10indirectedIZ4mainEUlSA_E_EEE7adaptorILb0EEEEELb1EEE, 1
_ZN6ranges6detail19is_writable_cursor_IKNS_14adaptor_cursorIN9__gnu_cxx17__normal_iteratorIPNSt7__cxx1112basic_stringIcSt11char_traitsIcESaIcEEESt6vectorISA_SaISA_EEEENS_19iter_transform_viewINS_8ref_viewISE_EENS_10indirectedIZ4mainEUlSA_E_EEE7adaptorILb0EEEEELb1EEE:
	.zero	1
	.type	_ZN6ranges6detail15writable_cursorIKNS_14adaptor_cursorIN9__gnu_cxx17__normal_iteratorIPNSt7__cxx1112basic_stringIcSt11char_traitsIcESaIcEEESt6vectorISA_SaISA_EEEENS_19iter_transform_viewINS_8ref_viewISE_EENS_10indirectedIZ4mainEUlSA_E_EEE7adaptorILb0EEEEESA_EE, @object
	.size	_ZN6ranges6detail15writable_cursorIKNS_14adaptor_cursorIN9__gnu_cxx17__normal_iteratorIPNSt7__cxx1112basic_stringIcSt11char_traitsIcESaIcEEESt6vectorISA_SaISA_EEEENS_19iter_transform_viewINS_8ref_viewISE_EENS_10indirectedIZ4mainEUlSA_E_EEE7adaptorILb0EEEEESA_EE, 1
_ZN6ranges6detail15writable_cursorIKNS_14adaptor_cursorIN9__gnu_cxx17__normal_iteratorIPNSt7__cxx1112basic_stringIcSt11char_traitsIcESaIcEEESt6vectorISA_SaISA_EEEENS_19iter_transform_viewINS_8ref_viewISE_EENS_10indirectedIZ4mainEUlSA_E_EEE7adaptorILb0EEEEESA_EE:
	.zero	1
	.type	_ZN6ranges6detail20is_writable_cursor_vINS_14adaptor_cursorIN9__gnu_cxx17__normal_iteratorIPNSt7__cxx1112basic_stringIcSt11char_traitsIcESaIcEEESt6vectorISA_SaISA_EEEENS_19iter_transform_viewINS_8ref_viewISE_EENS_10indirectedIZ4mainEUlSA_E_EEE7adaptorILb0EEEEEEE, @object
	.size	_ZN6ranges6detail20is_writable_cursor_vINS_14adaptor_cursorIN9__gnu_cxx17__normal_iteratorIPNSt7__cxx1112basic_stringIcSt11char_traitsIcESaIcEEESt6vectorISA_SaISA_EEEENS_19iter_transform_viewINS_8ref_viewISE_EENS_10indirectedIZ4mainEUlSA_E_EEE7adaptorILb0EEEEEEE, 1
_ZN6ranges6detail20is_writable_cursor_vINS_14adaptor_cursorIN9__gnu_cxx17__normal_iteratorIPNSt7__cxx1112basic_stringIcSt11char_traitsIcESaIcEEESt6vectorISA_SaISA_EEEENS_19iter_transform_viewINS_8ref_viewISE_EENS_10indirectedIZ4mainEUlSA_E_EEE7adaptorILb0EEEEEEE:
	.zero	1
	.type	_ZN6ranges6detail19is_writable_cursor_INS_14adaptor_cursorIN9__gnu_cxx17__normal_iteratorIPNSt7__cxx1112basic_stringIcSt11char_traitsIcESaIcEEESt6vectorISA_SaISA_EEEENS_19iter_transform_viewINS_8ref_viewISE_EENS_10indirectedIZ4mainEUlSA_E_EEE7adaptorILb0EEEEELb1EEE, @object
	.size	_ZN6ranges6detail19is_writable_cursor_INS_14adaptor_cursorIN9__gnu_cxx17__normal_iteratorIPNSt7__cxx1112basic_stringIcSt11char_traitsIcESaIcEEESt6vectorISA_SaISA_EEEENS_19iter_transform_viewINS_8ref_viewISE_EENS_10indirectedIZ4mainEUlSA_E_EEE7adaptorILb0EEEEELb1EEE, 1
_ZN6ranges6detail19is_writable_cursor_INS_14adaptor_cursorIN9__gnu_cxx17__normal_iteratorIPNSt7__cxx1112basic_stringIcSt11char_traitsIcESaIcEEESt6vectorISA_SaISA_EEEENS_19iter_transform_viewINS_8ref_viewISE_EENS_10indirectedIZ4mainEUlSA_E_EEE7adaptorILb0EEEEELb1EEE:
	.zero	1
	.type	_ZN6ranges6detail15writable_cursorINS_14adaptor_cursorIN9__gnu_cxx17__normal_iteratorIPNSt7__cxx1112basic_stringIcSt11char_traitsIcESaIcEEESt6vectorISA_SaISA_EEEENS_19iter_transform_viewINS_8ref_viewISE_EENS_10indirectedIZ4mainEUlSA_E_EEE7adaptorILb0EEEEESA_EE, @object
	.size	_ZN6ranges6detail15writable_cursorINS_14adaptor_cursorIN9__gnu_cxx17__normal_iteratorIPNSt7__cxx1112basic_stringIcSt11char_traitsIcESaIcEEESt6vectorISA_SaISA_EEEENS_19iter_transform_viewINS_8ref_viewISE_EENS_10indirectedIZ4mainEUlSA_E_EEE7adaptorILb0EEEEESA_EE, 1
_ZN6ranges6detail15writable_cursorINS_14adaptor_cursorIN9__gnu_cxx17__normal_iteratorIPNSt7__cxx1112basic_stringIcSt11char_traitsIcESaIcEEESt6vectorISA_SaISA_EEEENS_19iter_transform_viewINS_8ref_viewISE_EENS_10indirectedIZ4mainEUlSA_E_EEE7adaptorILb0EEEEESA_EE:
	.zero	1
	.type	_ZN6ranges6detail17contiguous_cursorINS_14adaptor_cursorIN9__gnu_cxx17__normal_iteratorIPNSt7__cxx1112basic_stringIcSt11char_traitsIcESaIcEEESt6vectorISA_SaISA_EEEENS_19iter_transform_viewINS_8ref_viewISE_EENS_10indirectedIZ4mainEUlSA_E_EEE7adaptorILb0EEEEEEE, @object
	.size	_ZN6ranges6detail17contiguous_cursorINS_14adaptor_cursorIN9__gnu_cxx17__normal_iteratorIPNSt7__cxx1112basic_stringIcSt11char_traitsIcESaIcEEESt6vectorISA_SaISA_EEEENS_19iter_transform_viewINS_8ref_viewISE_EENS_10indirectedIZ4mainEUlSA_E_EEE7adaptorILb0EEEEEEE, 1
_ZN6ranges6detail17contiguous_cursorINS_14adaptor_cursorIN9__gnu_cxx17__normal_iteratorIPNSt7__cxx1112basic_stringIcSt11char_traitsIcESaIcEEESt6vectorISA_SaISA_EEEENS_19iter_transform_viewINS_8ref_viewISE_EENS_10indirectedIZ4mainEUlSA_E_EEE7adaptorILb0EEEEEEE:
	.zero	1
	.type	_ZN6ranges6detail16has_cursor_arrowINS_14adaptor_cursorIN9__gnu_cxx17__normal_iteratorIPNSt7__cxx1112basic_stringIcSt11char_traitsIcESaIcEEESt6vectorISA_SaISA_EEEENS_19iter_transform_viewINS_8ref_viewISE_EENS_10indirectedIZ4mainEUlSA_E_EEE7adaptorILb0EEEEEEE, @object
	.size	_ZN6ranges6detail16has_cursor_arrowINS_14adaptor_cursorIN9__gnu_cxx17__normal_iteratorIPNSt7__cxx1112basic_stringIcSt11char_traitsIcESaIcEEESt6vectorISA_SaISA_EEEENS_19iter_transform_viewINS_8ref_viewISE_EENS_10indirectedIZ4mainEUlSA_E_EEE7adaptorILb0EEEEEEE, 1
_ZN6ranges6detail16has_cursor_arrowINS_14adaptor_cursorIN9__gnu_cxx17__normal_iteratorIPNSt7__cxx1112basic_stringIcSt11char_traitsIcESaIcEEESt6vectorISA_SaISA_EEEENS_19iter_transform_viewINS_8ref_viewISE_EENS_10indirectedIZ4mainEUlSA_E_EEE7adaptorILb0EEEEEEE:
	.zero	1
	.type	_ZN8concepts4defs7same_asIN6ranges19iter_transform_viewINS2_8ref_viewISt6vectorINSt7__cxx1112basic_stringIcSt11char_traitsIcESaIcEEESaISB_EEEENS2_10indirectedIZ4mainEUlSB_E_EEE7adaptorILb1EEESK_EE, @object
	.size	_ZN8concepts4defs7same_asIN6ranges19iter_transform_viewINS2_8ref_viewISt6vectorINSt7__cxx1112basic_stringIcSt11char_traitsIcESaIcEEESaISB_EEEENS2_10indirectedIZ4mainEUlSB_E_EEE7adaptorILb1EEESK_EE, 1
_ZN8concepts4defs7same_asIN6ranges19iter_transform_viewINS2_8ref_viewISt6vectorINSt7__cxx1112basic_stringIcSt11char_traitsIcESaIcEEESaISB_EEEENS2_10indirectedIZ4mainEUlSB_E_EEE7adaptorILb1EEESK_EE:
	.byte	1
	.type	_ZN8concepts4defs7same_asIN6ranges19iter_transform_viewINS2_8ref_viewISt6vectorINSt7__cxx1112basic_stringIcSt11char_traitsIcESaIcEEESaISB_EEEENS2_10indirectedIZ4mainEUlSB_E_EEE7adaptorILb0EEESK_EE, @object
	.size	_ZN8concepts4defs7same_asIN6ranges19iter_transform_viewINS2_8ref_viewISt6vectorINSt7__cxx1112basic_stringIcSt11char_traitsIcESaIcEEESaISB_EEEENS2_10indirectedIZ4mainEUlSB_E_EEE7adaptorILb0EEESK_EE, 1
_ZN8concepts4defs7same_asIN6ranges19iter_transform_viewINS2_8ref_viewISt6vectorINSt7__cxx1112basic_stringIcSt11char_traitsIcESaIcEEESaISB_EEEENS2_10indirectedIZ4mainEUlSB_E_EEE7adaptorILb0EEESK_EE:
	.byte	1
	.type	_ZN8concepts4defs7same_asIN6ranges14adaptor_cursorIN9__gnu_cxx17__normal_iteratorIPNSt7__cxx1112basic_stringIcSt11char_traitsIcESaIcEEESt6vectorISB_SaISB_EEEENS2_19iter_transform_viewINS2_8ref_viewISF_EENS2_10indirectedIZ4mainEUlSB_E_EEE7adaptorILb1EEEEESQ_EE, @object
	.size	_ZN8concepts4defs7same_asIN6ranges14adaptor_cursorIN9__gnu_cxx17__normal_iteratorIPNSt7__cxx1112basic_stringIcSt11char_traitsIcESaIcEEESt6vectorISB_SaISB_EEEENS2_19iter_transform_viewINS2_8ref_viewISF_EENS2_10indirectedIZ4mainEUlSB_E_EEE7adaptorILb1EEEEESQ_EE, 1
_ZN8concepts4defs7same_asIN6ranges14adaptor_cursorIN9__gnu_cxx17__normal_iteratorIPNSt7__cxx1112basic_stringIcSt11char_traitsIcESaIcEEESt6vectorISB_SaISB_EEEENS2_19iter_transform_viewINS2_8ref_viewISF_EENS2_10indirectedIZ4mainEUlSB_E_EEE7adaptorILb1EEEEESQ_EE:
	.byte	1
	.type	_ZN6ranges6detail19sentinel_for_cursorINS_14basic_iteratorINS_14adaptor_cursorIN9__gnu_cxx17__normal_iteratorIPNSt7__cxx1112basic_stringIcSt11char_traitsIcESaIcEEESt6vectorISB_SaISB_EEEENS_19iter_transform_viewINS_8ref_viewISF_EENS_10indirectedIZ4mainEUlSB_E_EEE7adaptorILb0EEEEEEESQ_EE, @object
	.size	_ZN6ranges6detail19sentinel_for_cursorINS_14basic_iteratorINS_14adaptor_cursorIN9__gnu_cxx17__normal_iteratorIPNSt7__cxx1112basic_stringIcSt11char_traitsIcESaIcEEESt6vectorISB_SaISB_EEEENS_19iter_transform_viewINS_8ref_viewISF_EENS_10indirectedIZ4mainEUlSB_E_EEE7adaptorILb0EEEEEEESQ_EE, 1
_ZN6ranges6detail19sentinel_for_cursorINS_14basic_iteratorINS_14adaptor_cursorIN9__gnu_cxx17__normal_iteratorIPNSt7__cxx1112basic_stringIcSt11char_traitsIcESaIcEEESt6vectorISB_SaISB_EEEENS_19iter_transform_viewINS_8ref_viewISF_EENS_10indirectedIZ4mainEUlSB_E_EEE7adaptorILb0EEEEEEESQ_EE:
	.zero	1
	.type	_ZN8concepts4defs11semiregularIN6ranges14basic_iteratorINS2_14adaptor_cursorIN9__gnu_cxx17__normal_iteratorIPNSt7__cxx1112basic_stringIcSt11char_traitsIcESaIcEEESt6vectorISC_SaISC_EEEENS2_19iter_transform_viewINS2_8ref_viewISG_EENS2_10indirectedIZ4mainEUlSC_E_EEE7adaptorILb0EEEEEEEEE, @object
	.size	_ZN8concepts4defs11semiregularIN6ranges14basic_iteratorINS2_14adaptor_cursorIN9__gnu_cxx17__normal_iteratorIPNSt7__cxx1112basic_stringIcSt11char_traitsIcESaIcEEESt6vectorISC_SaISC_EEEENS2_19iter_transform_viewINS2_8ref_viewISG_EENS2_10indirectedIZ4mainEUlSC_E_EEE7adaptorILb0EEEEEEEEE, 1
_ZN8concepts4defs11semiregularIN6ranges14basic_iteratorINS2_14adaptor_cursorIN9__gnu_cxx17__normal_iteratorIPNSt7__cxx1112basic_stringIcSt11char_traitsIcESaIcEEESt6vectorISC_SaISC_EEEENS2_19iter_transform_viewINS2_8ref_viewISG_EENS2_10indirectedIZ4mainEUlSC_E_EEE7adaptorILb0EEEEEEEEE:
	.byte	1
	.type	_ZN8concepts4defs8copyableIN6ranges14basic_iteratorINS2_14adaptor_cursorIN9__gnu_cxx17__normal_iteratorIPNSt7__cxx1112basic_stringIcSt11char_traitsIcESaIcEEESt6vectorISC_SaISC_EEEENS2_19iter_transform_viewINS2_8ref_viewISG_EENS2_10indirectedIZ4mainEUlSC_E_EEE7adaptorILb0EEEEEEEEE, @object
	.size	_ZN8concepts4defs8copyableIN6ranges14basic_iteratorINS2_14adaptor_cursorIN9__gnu_cxx17__normal_iteratorIPNSt7__cxx1112basic_stringIcSt11char_traitsIcESaIcEEESt6vectorISC_SaISC_EEEENS2_19iter_transform_viewINS2_8ref_viewISG_EENS2_10indirectedIZ4mainEUlSC_E_EEE7adaptorILb0EEEEEEEEE, 1
_ZN8concepts4defs8copyableIN6ranges14basic_iteratorINS2_14adaptor_cursorIN9__gnu_cxx17__normal_iteratorIPNSt7__cxx1112basic_stringIcSt11char_traitsIcESaIcEEESt6vectorISC_SaISC_EEEENS2_19iter_transform_viewINS2_8ref_viewISG_EENS2_10indirectedIZ4mainEUlSC_E_EEE7adaptorILb0EEEEEEEEE:
	.byte	1
	.type	_ZN8concepts4defs18copy_constructibleIN6ranges14basic_iteratorINS2_14adaptor_cursorIN9__gnu_cxx17__normal_iteratorIPNSt7__cxx1112basic_stringIcSt11char_traitsIcESaIcEEESt6vectorISC_SaISC_EEEENS2_19iter_transform_viewINS2_8ref_viewISG_EENS2_10indirectedIZ4mainEUlSC_E_EEE7adaptorILb0EEEEEEEEE, @object
	.size	_ZN8concepts4defs18copy_constructibleIN6ranges14basic_iteratorINS2_14adaptor_cursorIN9__gnu_cxx17__normal_iteratorIPNSt7__cxx1112basic_stringIcSt11char_traitsIcESaIcEEESt6vectorISC_SaISC_EEEENS2_19iter_transform_viewINS2_8ref_viewISG_EENS2_10indirectedIZ4mainEUlSC_E_EEE7adaptorILb0EEEEEEEEE, 1
_ZN8concepts4defs18copy_constructibleIN6ranges14basic_iteratorINS2_14adaptor_cursorIN9__gnu_cxx17__normal_iteratorIPNSt7__cxx1112basic_stringIcSt11char_traitsIcESaIcEEESt6vectorISC_SaISC_EEEENS2_19iter_transform_viewINS2_8ref_viewISG_EENS2_10indirectedIZ4mainEUlSC_E_EEE7adaptorILb0EEEEEEEEE:
	.byte	1
	.type	_ZN8concepts4defs18move_constructibleIN6ranges14basic_iteratorINS2_14adaptor_cursorIN9__gnu_cxx17__normal_iteratorIPNSt7__cxx1112basic_stringIcSt11char_traitsIcESaIcEEESt6vectorISC_SaISC_EEEENS2_19iter_transform_viewINS2_8ref_viewISG_EENS2_10indirectedIZ4mainEUlSC_E_EEE7adaptorILb0EEEEEEEEE, @object
	.size	_ZN8concepts4defs18move_constructibleIN6ranges14basic_iteratorINS2_14adaptor_cursorIN9__gnu_cxx17__normal_iteratorIPNSt7__cxx1112basic_stringIcSt11char_traitsIcESaIcEEESt6vectorISC_SaISC_EEEENS2_19iter_transform_viewINS2_8ref_viewISG_EENS2_10indirectedIZ4mainEUlSC_E_EEE7adaptorILb0EEEEEEEEE, 1
_ZN8concepts4defs18move_constructibleIN6ranges14basic_iteratorINS2_14adaptor_cursorIN9__gnu_cxx17__normal_iteratorIPNSt7__cxx1112basic_stringIcSt11char_traitsIcESaIcEEESt6vectorISC_SaISC_EEEENS2_19iter_transform_viewINS2_8ref_viewISG_EENS2_10indirectedIZ4mainEUlSC_E_EEE7adaptorILb0EEEEEEEEE:
	.byte	1
	.type	_ZN8concepts4defs18constructible_fromIN6ranges14basic_iteratorINS2_14adaptor_cursorIN9__gnu_cxx17__normal_iteratorIPNSt7__cxx1112basic_stringIcSt11char_traitsIcESaIcEEESt6vectorISC_SaISC_EEEENS2_19iter_transform_viewINS2_8ref_viewISG_EENS2_10indirectedIZ4mainEUlSC_E_EEE7adaptorILb0EEEEEEEJSS_EEE, @object
	.size	_ZN8concepts4defs18constructible_fromIN6ranges14basic_iteratorINS2_14adaptor_cursorIN9__gnu_cxx17__normal_iteratorIPNSt7__cxx1112basic_stringIcSt11char_traitsIcESaIcEEESt6vectorISC_SaISC_EEEENS2_19iter_transform_viewINS2_8ref_viewISG_EENS2_10indirectedIZ4mainEUlSC_E_EEE7adaptorILb0EEEEEEEJSS_EEE, 1
_ZN8concepts4defs18constructible_fromIN6ranges14basic_iteratorINS2_14adaptor_cursorIN9__gnu_cxx17__normal_iteratorIPNSt7__cxx1112basic_stringIcSt11char_traitsIcESaIcEEESt6vectorISC_SaISC_EEEENS2_19iter_transform_viewINS2_8ref_viewISG_EENS2_10indirectedIZ4mainEUlSC_E_EEE7adaptorILb0EEEEEEEJSS_EEE:
	.byte	1
	.type	_ZN8concepts4defs12destructibleIN6ranges14basic_iteratorINS2_14adaptor_cursorIN9__gnu_cxx17__normal_iteratorIPNSt7__cxx1112basic_stringIcSt11char_traitsIcESaIcEEESt6vectorISC_SaISC_EEEENS2_19iter_transform_viewINS2_8ref_viewISG_EENS2_10indirectedIZ4mainEUlSC_E_EEE7adaptorILb0EEEEEEEEE, @object
	.size	_ZN8concepts4defs12destructibleIN6ranges14basic_iteratorINS2_14adaptor_cursorIN9__gnu_cxx17__normal_iteratorIPNSt7__cxx1112basic_stringIcSt11char_traitsIcESaIcEEESt6vectorISC_SaISC_EEEENS2_19iter_transform_viewINS2_8ref_viewISG_EENS2_10indirectedIZ4mainEUlSC_E_EEE7adaptorILb0EEEEEEEEE, 1
_ZN8concepts4defs12destructibleIN6ranges14basic_iteratorINS2_14adaptor_cursorIN9__gnu_cxx17__normal_iteratorIPNSt7__cxx1112basic_stringIcSt11char_traitsIcESaIcEEESt6vectorISC_SaISC_EEEENS2_19iter_transform_viewINS2_8ref_viewISG_EENS2_10indirectedIZ4mainEUlSC_E_EEE7adaptorILb0EEEEEEEEE:
	.byte	1
	.type	_ZN8concepts4defs14convertible_toIN6ranges14basic_iteratorINS2_14adaptor_cursorIN9__gnu_cxx17__normal_iteratorIPNSt7__cxx1112basic_stringIcSt11char_traitsIcESaIcEEESt6vectorISC_SaISC_EEEENS2_19iter_transform_viewINS2_8ref_viewISG_EENS2_10indirectedIZ4mainEUlSC_E_EEE7adaptorILb0EEEEEEESS_EE, @object
	.size	_ZN8concepts4defs14convertible_toIN6ranges14basic_iteratorINS2_14adaptor_cursorIN9__gnu_cxx17__normal_iteratorIPNSt7__cxx1112basic_stringIcSt11char_traitsIcESaIcEEESt6vectorISC_SaISC_EEEENS2_19iter_transform_viewINS2_8ref_viewISG_EENS2_10indirectedIZ4mainEUlSC_E_EEE7adaptorILb0EEEEEEESS_EE, 1
_ZN8concepts4defs14convertible_toIN6ranges14basic_iteratorINS2_14adaptor_cursorIN9__gnu_cxx17__normal_iteratorIPNSt7__cxx1112basic_stringIcSt11char_traitsIcESaIcEEESt6vectorISC_SaISC_EEEENS2_19iter_transform_viewINS2_8ref_viewISG_EENS2_10indirectedIZ4mainEUlSC_E_EEE7adaptorILb0EEEEEEESS_EE:
	.byte	1
	.type	_ZN8concepts4defs25implicitly_convertible_toIN6ranges14basic_iteratorINS2_14adaptor_cursorIN9__gnu_cxx17__normal_iteratorIPNSt7__cxx1112basic_stringIcSt11char_traitsIcESaIcEEESt6vectorISC_SaISC_EEEENS2_19iter_transform_viewINS2_8ref_viewISG_EENS2_10indirectedIZ4mainEUlSC_E_EEE7adaptorILb0EEEEEEESS_EE, @object
	.size	_ZN8concepts4defs25implicitly_convertible_toIN6ranges14basic_iteratorINS2_14adaptor_cursorIN9__gnu_cxx17__normal_iteratorIPNSt7__cxx1112basic_stringIcSt11char_traitsIcESaIcEEESt6vectorISC_SaISC_EEEENS2_19iter_transform_viewINS2_8ref_viewISG_EENS2_10indirectedIZ4mainEUlSC_E_EEE7adaptorILb0EEEEEEESS_EE, 1
_ZN8concepts4defs25implicitly_convertible_toIN6ranges14basic_iteratorINS2_14adaptor_cursorIN9__gnu_cxx17__normal_iteratorIPNSt7__cxx1112basic_stringIcSt11char_traitsIcESaIcEEESt6vectorISC_SaISC_EEEENS2_19iter_transform_viewINS2_8ref_viewISG_EENS2_10indirectedIZ4mainEUlSC_E_EEE7adaptorILb0EEEEEEESS_EE:
	.byte	1
	.type	_ZN8concepts4defs25explicitly_convertible_toIN6ranges14basic_iteratorINS2_14adaptor_cursorIN9__gnu_cxx17__normal_iteratorIPNSt7__cxx1112basic_stringIcSt11char_traitsIcESaIcEEESt6vectorISC_SaISC_EEEENS2_19iter_transform_viewINS2_8ref_viewISG_EENS2_10indirectedIZ4mainEUlSC_E_EEE7adaptorILb0EEEEEEESS_EE, @object
	.size	_ZN8concepts4defs25explicitly_convertible_toIN6ranges14basic_iteratorINS2_14adaptor_cursorIN9__gnu_cxx17__normal_iteratorIPNSt7__cxx1112basic_stringIcSt11char_traitsIcESaIcEEESt6vectorISC_SaISC_EEEENS2_19iter_transform_viewINS2_8ref_viewISG_EENS2_10indirectedIZ4mainEUlSC_E_EEE7adaptorILb0EEEEEEESS_EE, 1
_ZN8concepts4defs25explicitly_convertible_toIN6ranges14basic_iteratorINS2_14adaptor_cursorIN9__gnu_cxx17__normal_iteratorIPNSt7__cxx1112basic_stringIcSt11char_traitsIcESaIcEEESt6vectorISC_SaISC_EEEENS2_19iter_transform_viewINS2_8ref_viewISG_EENS2_10indirectedIZ4mainEUlSC_E_EEE7adaptorILb0EEEEEEESS_EE:
	.byte	1
	.type	_ZN8concepts4defs18constructible_fromIN6ranges14basic_iteratorINS2_14adaptor_cursorIN9__gnu_cxx17__normal_iteratorIPNSt7__cxx1112basic_stringIcSt11char_traitsIcESaIcEEESt6vectorISC_SaISC_EEEENS2_19iter_transform_viewINS2_8ref_viewISG_EENS2_10indirectedIZ4mainEUlSC_E_EEE7adaptorILb0EEEEEEEJRSS_EEE, @object
	.size	_ZN8concepts4defs18constructible_fromIN6ranges14basic_iteratorINS2_14adaptor_cursorIN9__gnu_cxx17__normal_iteratorIPNSt7__cxx1112basic_stringIcSt11char_traitsIcESaIcEEESt6vectorISC_SaISC_EEEENS2_19iter_transform_viewINS2_8ref_viewISG_EENS2_10indirectedIZ4mainEUlSC_E_EEE7adaptorILb0EEEEEEEJRSS_EEE, 1
_ZN8concepts4defs18constructible_fromIN6ranges14basic_iteratorINS2_14adaptor_cursorIN9__gnu_cxx17__normal_iteratorIPNSt7__cxx1112basic_stringIcSt11char_traitsIcESaIcEEESt6vectorISC_SaISC_EEEENS2_19iter_transform_viewINS2_8ref_viewISG_EENS2_10indirectedIZ4mainEUlSC_E_EEE7adaptorILb0EEEEEEEJRSS_EEE:
	.byte	1
	.type	_ZN8concepts4defs18constructible_fromIN6ranges14basic_iteratorINS2_14adaptor_cursorIN9__gnu_cxx17__normal_iteratorIPNSt7__cxx1112basic_stringIcSt11char_traitsIcESaIcEEESt6vectorISC_SaISC_EEEENS2_19iter_transform_viewINS2_8ref_viewISG_EENS2_10indirectedIZ4mainEUlSC_E_EEE7adaptorILb0EEEEEEEJRKSS_EEE, @object
	.size	_ZN8concepts4defs18constructible_fromIN6ranges14basic_iteratorINS2_14adaptor_cursorIN9__gnu_cxx17__normal_iteratorIPNSt7__cxx1112basic_stringIcSt11char_traitsIcESaIcEEESt6vectorISC_SaISC_EEEENS2_19iter_transform_viewINS2_8ref_viewISG_EENS2_10indirectedIZ4mainEUlSC_E_EEE7adaptorILb0EEEEEEEJRKSS_EEE, 1
_ZN8concepts4defs18constructible_fromIN6ranges14basic_iteratorINS2_14adaptor_cursorIN9__gnu_cxx17__normal_iteratorIPNSt7__cxx1112basic_stringIcSt11char_traitsIcESaIcEEESt6vectorISC_SaISC_EEEENS2_19iter_transform_viewINS2_8ref_viewISG_EENS2_10indirectedIZ4mainEUlSC_E_EEE7adaptorILb0EEEEEEEJRKSS_EEE:
	.byte	1
	.type	_ZN8concepts4defs18constructible_fromIN6ranges14basic_iteratorINS2_14adaptor_cursorIN9__gnu_cxx17__normal_iteratorIPNSt7__cxx1112basic_stringIcSt11char_traitsIcESaIcEEESt6vectorISC_SaISC_EEEENS2_19iter_transform_viewINS2_8ref_viewISG_EENS2_10indirectedIZ4mainEUlSC_E_EEE7adaptorILb0EEEEEEEJKSS_EEE, @object
	.size	_ZN8concepts4defs18constructible_fromIN6ranges14basic_iteratorINS2_14adaptor_cursorIN9__gnu_cxx17__normal_iteratorIPNSt7__cxx1112basic_stringIcSt11char_traitsIcESaIcEEESt6vectorISC_SaISC_EEEENS2_19iter_transform_viewINS2_8ref_viewISG_EENS2_10indirectedIZ4mainEUlSC_E_EEE7adaptorILb0EEEEEEEJKSS_EEE, 1
_ZN8concepts4defs18constructible_fromIN6ranges14basic_iteratorINS2_14adaptor_cursorIN9__gnu_cxx17__normal_iteratorIPNSt7__cxx1112basic_stringIcSt11char_traitsIcESaIcEEESt6vectorISC_SaISC_EEEENS2_19iter_transform_viewINS2_8ref_viewISG_EENS2_10indirectedIZ4mainEUlSC_E_EEE7adaptorILb0EEEEEEEJKSS_EEE:
	.byte	1
	.type	_ZN8concepts4defs14convertible_toIRN6ranges14basic_iteratorINS2_14adaptor_cursorIN9__gnu_cxx17__normal_iteratorIPNSt7__cxx1112basic_stringIcSt11char_traitsIcESaIcEEESt6vectorISC_SaISC_EEEENS2_19iter_transform_viewINS2_8ref_viewISG_EENS2_10indirectedIZ4mainEUlSC_E_EEE7adaptorILb0EEEEEEESS_EE, @object
	.size	_ZN8concepts4defs14convertible_toIRN6ranges14basic_iteratorINS2_14adaptor_cursorIN9__gnu_cxx17__normal_iteratorIPNSt7__cxx1112basic_stringIcSt11char_traitsIcESaIcEEESt6vectorISC_SaISC_EEEENS2_19iter_transform_viewINS2_8ref_viewISG_EENS2_10indirectedIZ4mainEUlSC_E_EEE7adaptorILb0EEEEEEESS_EE, 1
_ZN8concepts4defs14convertible_toIRN6ranges14basic_iteratorINS2_14adaptor_cursorIN9__gnu_cxx17__normal_iteratorIPNSt7__cxx1112basic_stringIcSt11char_traitsIcESaIcEEESt6vectorISC_SaISC_EEEENS2_19iter_transform_viewINS2_8ref_viewISG_EENS2_10indirectedIZ4mainEUlSC_E_EEE7adaptorILb0EEEEEEESS_EE:
	.byte	1
	.type	_ZN8concepts4defs25implicitly_convertible_toIRN6ranges14basic_iteratorINS2_14adaptor_cursorIN9__gnu_cxx17__normal_iteratorIPNSt7__cxx1112basic_stringIcSt11char_traitsIcESaIcEEESt6vectorISC_SaISC_EEEENS2_19iter_transform_viewINS2_8ref_viewISG_EENS2_10indirectedIZ4mainEUlSC_E_EEE7adaptorILb0EEEEEEESS_EE, @object
	.size	_ZN8concepts4defs25implicitly_convertible_toIRN6ranges14basic_iteratorINS2_14adaptor_cursorIN9__gnu_cxx17__normal_iteratorIPNSt7__cxx1112basic_stringIcSt11char_traitsIcESaIcEEESt6vectorISC_SaISC_EEEENS2_19iter_transform_viewINS2_8ref_viewISG_EENS2_10indirectedIZ4mainEUlSC_E_EEE7adaptorILb0EEEEEEESS_EE, 1
_ZN8concepts4defs25implicitly_convertible_toIRN6ranges14basic_iteratorINS2_14adaptor_cursorIN9__gnu_cxx17__normal_iteratorIPNSt7__cxx1112basic_stringIcSt11char_traitsIcESaIcEEESt6vectorISC_SaISC_EEEENS2_19iter_transform_viewINS2_8ref_viewISG_EENS2_10indirectedIZ4mainEUlSC_E_EEE7adaptorILb0EEEEEEESS_EE:
	.byte	1
	.type	_ZN8concepts4defs25explicitly_convertible_toIRN6ranges14basic_iteratorINS2_14adaptor_cursorIN9__gnu_cxx17__normal_iteratorIPNSt7__cxx1112basic_stringIcSt11char_traitsIcESaIcEEESt6vectorISC_SaISC_EEEENS2_19iter_transform_viewINS2_8ref_viewISG_EENS2_10indirectedIZ4mainEUlSC_E_EEE7adaptorILb0EEEEEEESS_EE, @object
	.size	_ZN8concepts4defs25explicitly_convertible_toIRN6ranges14basic_iteratorINS2_14adaptor_cursorIN9__gnu_cxx17__normal_iteratorIPNSt7__cxx1112basic_stringIcSt11char_traitsIcESaIcEEESt6vectorISC_SaISC_EEEENS2_19iter_transform_viewINS2_8ref_viewISG_EENS2_10indirectedIZ4mainEUlSC_E_EEE7adaptorILb0EEEEEEESS_EE, 1
_ZN8concepts4defs25explicitly_convertible_toIRN6ranges14basic_iteratorINS2_14adaptor_cursorIN9__gnu_cxx17__normal_iteratorIPNSt7__cxx1112basic_stringIcSt11char_traitsIcESaIcEEESt6vectorISC_SaISC_EEEENS2_19iter_transform_viewINS2_8ref_viewISG_EENS2_10indirectedIZ4mainEUlSC_E_EEE7adaptorILb0EEEEEEESS_EE:
	.byte	1
	.type	_ZN8concepts4defs14convertible_toIRKN6ranges14basic_iteratorINS2_14adaptor_cursorIN9__gnu_cxx17__normal_iteratorIPNSt7__cxx1112basic_stringIcSt11char_traitsIcESaIcEEESt6vectorISC_SaISC_EEEENS2_19iter_transform_viewINS2_8ref_viewISG_EENS2_10indirectedIZ4mainEUlSC_E_EEE7adaptorILb0EEEEEEESS_EE, @object
	.size	_ZN8concepts4defs14convertible_toIRKN6ranges14basic_iteratorINS2_14adaptor_cursorIN9__gnu_cxx17__normal_iteratorIPNSt7__cxx1112basic_stringIcSt11char_traitsIcESaIcEEESt6vectorISC_SaISC_EEEENS2_19iter_transform_viewINS2_8ref_viewISG_EENS2_10indirectedIZ4mainEUlSC_E_EEE7adaptorILb0EEEEEEESS_EE, 1
_ZN8concepts4defs14convertible_toIRKN6ranges14basic_iteratorINS2_14adaptor_cursorIN9__gnu_cxx17__normal_iteratorIPNSt7__cxx1112basic_stringIcSt11char_traitsIcESaIcEEESt6vectorISC_SaISC_EEEENS2_19iter_transform_viewINS2_8ref_viewISG_EENS2_10indirectedIZ4mainEUlSC_E_EEE7adaptorILb0EEEEEEESS_EE:
	.byte	1
	.type	_ZN8concepts4defs25implicitly_convertible_toIRKN6ranges14basic_iteratorINS2_14adaptor_cursorIN9__gnu_cxx17__normal_iteratorIPNSt7__cxx1112basic_stringIcSt11char_traitsIcESaIcEEESt6vectorISC_SaISC_EEEENS2_19iter_transform_viewINS2_8ref_viewISG_EENS2_10indirectedIZ4mainEUlSC_E_EEE7adaptorILb0EEEEEEESS_EE, @object
	.size	_ZN8concepts4defs25implicitly_convertible_toIRKN6ranges14basic_iteratorINS2_14adaptor_cursorIN9__gnu_cxx17__normal_iteratorIPNSt7__cxx1112basic_stringIcSt11char_traitsIcESaIcEEESt6vectorISC_SaISC_EEEENS2_19iter_transform_viewINS2_8ref_viewISG_EENS2_10indirectedIZ4mainEUlSC_E_EEE7adaptorILb0EEEEEEESS_EE, 1
_ZN8concepts4defs25implicitly_convertible_toIRKN6ranges14basic_iteratorINS2_14adaptor_cursorIN9__gnu_cxx17__normal_iteratorIPNSt7__cxx1112basic_stringIcSt11char_traitsIcESaIcEEESt6vectorISC_SaISC_EEEENS2_19iter_transform_viewINS2_8ref_viewISG_EENS2_10indirectedIZ4mainEUlSC_E_EEE7adaptorILb0EEEEEEESS_EE:
	.byte	1
	.type	_ZN8concepts4defs25explicitly_convertible_toIRKN6ranges14basic_iteratorINS2_14adaptor_cursorIN9__gnu_cxx17__normal_iteratorIPNSt7__cxx1112basic_stringIcSt11char_traitsIcESaIcEEESt6vectorISC_SaISC_EEEENS2_19iter_transform_viewINS2_8ref_viewISG_EENS2_10indirectedIZ4mainEUlSC_E_EEE7adaptorILb0EEEEEEESS_EE, @object
	.size	_ZN8concepts4defs25explicitly_convertible_toIRKN6ranges14basic_iteratorINS2_14adaptor_cursorIN9__gnu_cxx17__normal_iteratorIPNSt7__cxx1112basic_stringIcSt11char_traitsIcESaIcEEESt6vectorISC_SaISC_EEEENS2_19iter_transform_viewINS2_8ref_viewISG_EENS2_10indirectedIZ4mainEUlSC_E_EEE7adaptorILb0EEEEEEESS_EE, 1
_ZN8concepts4defs25explicitly_convertible_toIRKN6ranges14basic_iteratorINS2_14adaptor_cursorIN9__gnu_cxx17__normal_iteratorIPNSt7__cxx1112basic_stringIcSt11char_traitsIcESaIcEEESt6vectorISC_SaISC_EEEENS2_19iter_transform_viewINS2_8ref_viewISG_EENS2_10indirectedIZ4mainEUlSC_E_EEE7adaptorILb0EEEEEEESS_EE:
	.byte	1
	.type	_ZN8concepts4defs14convertible_toIKN6ranges14basic_iteratorINS2_14adaptor_cursorIN9__gnu_cxx17__normal_iteratorIPNSt7__cxx1112basic_stringIcSt11char_traitsIcESaIcEEESt6vectorISC_SaISC_EEEENS2_19iter_transform_viewINS2_8ref_viewISG_EENS2_10indirectedIZ4mainEUlSC_E_EEE7adaptorILb0EEEEEEESS_EE, @object
	.size	_ZN8concepts4defs14convertible_toIKN6ranges14basic_iteratorINS2_14adaptor_cursorIN9__gnu_cxx17__normal_iteratorIPNSt7__cxx1112basic_stringIcSt11char_traitsIcESaIcEEESt6vectorISC_SaISC_EEEENS2_19iter_transform_viewINS2_8ref_viewISG_EENS2_10indirectedIZ4mainEUlSC_E_EEE7adaptorILb0EEEEEEESS_EE, 1
_ZN8concepts4defs14convertible_toIKN6ranges14basic_iteratorINS2_14adaptor_cursorIN9__gnu_cxx17__normal_iteratorIPNSt7__cxx1112basic_stringIcSt11char_traitsIcESaIcEEESt6vectorISC_SaISC_EEEENS2_19iter_transform_viewINS2_8ref_viewISG_EENS2_10indirectedIZ4mainEUlSC_E_EEE7adaptorILb0EEEEEEESS_EE:
	.byte	1
	.type	_ZN8concepts4defs25implicitly_convertible_toIKN6ranges14basic_iteratorINS2_14adaptor_cursorIN9__gnu_cxx17__normal_iteratorIPNSt7__cxx1112basic_stringIcSt11char_traitsIcESaIcEEESt6vectorISC_SaISC_EEEENS2_19iter_transform_viewINS2_8ref_viewISG_EENS2_10indirectedIZ4mainEUlSC_E_EEE7adaptorILb0EEEEEEESS_EE, @object
	.size	_ZN8concepts4defs25implicitly_convertible_toIKN6ranges14basic_iteratorINS2_14adaptor_cursorIN9__gnu_cxx17__normal_iteratorIPNSt7__cxx1112basic_stringIcSt11char_traitsIcESaIcEEESt6vectorISC_SaISC_EEEENS2_19iter_transform_viewINS2_8ref_viewISG_EENS2_10indirectedIZ4mainEUlSC_E_EEE7adaptorILb0EEEEEEESS_EE, 1
_ZN8concepts4defs25implicitly_convertible_toIKN6ranges14basic_iteratorINS2_14adaptor_cursorIN9__gnu_cxx17__normal_iteratorIPNSt7__cxx1112basic_stringIcSt11char_traitsIcESaIcEEESt6vectorISC_SaISC_EEEENS2_19iter_transform_viewINS2_8ref_viewISG_EENS2_10indirectedIZ4mainEUlSC_E_EEE7adaptorILb0EEEEEEESS_EE:
	.byte	1
	.type	_ZN8concepts4defs25explicitly_convertible_toIKN6ranges14basic_iteratorINS2_14adaptor_cursorIN9__gnu_cxx17__normal_iteratorIPNSt7__cxx1112basic_stringIcSt11char_traitsIcESaIcEEESt6vectorISC_SaISC_EEEENS2_19iter_transform_viewINS2_8ref_viewISG_EENS2_10indirectedIZ4mainEUlSC_E_EEE7adaptorILb0EEEEEEESS_EE, @object
	.size	_ZN8concepts4defs25explicitly_convertible_toIKN6ranges14basic_iteratorINS2_14adaptor_cursorIN9__gnu_cxx17__normal_iteratorIPNSt7__cxx1112basic_stringIcSt11char_traitsIcESaIcEEESt6vectorISC_SaISC_EEEENS2_19iter_transform_viewINS2_8ref_viewISG_EENS2_10indirectedIZ4mainEUlSC_E_EEE7adaptorILb0EEEEEEESS_EE, 1
_ZN8concepts4defs25explicitly_convertible_toIKN6ranges14basic_iteratorINS2_14adaptor_cursorIN9__gnu_cxx17__normal_iteratorIPNSt7__cxx1112basic_stringIcSt11char_traitsIcESaIcEEESt6vectorISC_SaISC_EEEENS2_19iter_transform_viewINS2_8ref_viewISG_EENS2_10indirectedIZ4mainEUlSC_E_EEE7adaptorILb0EEEEEEESS_EE:
	.byte	1
	.type	_ZN8concepts4defs7movableIN6ranges14basic_iteratorINS2_14adaptor_cursorIN9__gnu_cxx17__normal_iteratorIPNSt7__cxx1112basic_stringIcSt11char_traitsIcESaIcEEESt6vectorISC_SaISC_EEEENS2_19iter_transform_viewINS2_8ref_viewISG_EENS2_10indirectedIZ4mainEUlSC_E_EEE7adaptorILb0EEEEEEEEE, @object
	.size	_ZN8concepts4defs7movableIN6ranges14basic_iteratorINS2_14adaptor_cursorIN9__gnu_cxx17__normal_iteratorIPNSt7__cxx1112basic_stringIcSt11char_traitsIcESaIcEEESt6vectorISC_SaISC_EEEENS2_19iter_transform_viewINS2_8ref_viewISG_EENS2_10indirectedIZ4mainEUlSC_E_EEE7adaptorILb0EEEEEEEEE, 1
_ZN8concepts4defs7movableIN6ranges14basic_iteratorINS2_14adaptor_cursorIN9__gnu_cxx17__normal_iteratorIPNSt7__cxx1112basic_stringIcSt11char_traitsIcESaIcEEESt6vectorISC_SaISC_EEEENS2_19iter_transform_viewINS2_8ref_viewISG_EENS2_10indirectedIZ4mainEUlSC_E_EEE7adaptorILb0EEEEEEEEE:
	.byte	1
	.type	_ZN8concepts4defs15assignable_fromIRN6ranges14basic_iteratorINS2_14adaptor_cursorIN9__gnu_cxx17__normal_iteratorIPNSt7__cxx1112basic_stringIcSt11char_traitsIcESaIcEEESt6vectorISC_SaISC_EEEENS2_19iter_transform_viewINS2_8ref_viewISG_EENS2_10indirectedIZ4mainEUlSC_E_EEE7adaptorILb0EEEEEEESS_EE, @object
	.size	_ZN8concepts4defs15assignable_fromIRN6ranges14basic_iteratorINS2_14adaptor_cursorIN9__gnu_cxx17__normal_iteratorIPNSt7__cxx1112basic_stringIcSt11char_traitsIcESaIcEEESt6vectorISC_SaISC_EEEENS2_19iter_transform_viewINS2_8ref_viewISG_EENS2_10indirectedIZ4mainEUlSC_E_EEE7adaptorILb0EEEEEEESS_EE, 1
_ZN8concepts4defs15assignable_fromIRN6ranges14basic_iteratorINS2_14adaptor_cursorIN9__gnu_cxx17__normal_iteratorIPNSt7__cxx1112basic_stringIcSt11char_traitsIcESaIcEEESt6vectorISC_SaISC_EEEENS2_19iter_transform_viewINS2_8ref_viewISG_EENS2_10indirectedIZ4mainEUlSC_E_EEE7adaptorILb0EEEEEEESS_EE:
	.byte	1
	.type	_ZN8concepts4defs21common_reference_withIRKN6ranges14basic_iteratorINS2_14adaptor_cursorIN9__gnu_cxx17__normal_iteratorIPNSt7__cxx1112basic_stringIcSt11char_traitsIcESaIcEEESt6vectorISC_SaISC_EEEENS2_19iter_transform_viewINS2_8ref_viewISG_EENS2_10indirectedIZ4mainEUlSC_E_EEE7adaptorILb0EEEEEEESU_EE, @object
	.size	_ZN8concepts4defs21common_reference_withIRKN6ranges14basic_iteratorINS2_14adaptor_cursorIN9__gnu_cxx17__normal_iteratorIPNSt7__cxx1112basic_stringIcSt11char_traitsIcESaIcEEESt6vectorISC_SaISC_EEEENS2_19iter_transform_viewINS2_8ref_viewISG_EENS2_10indirectedIZ4mainEUlSC_E_EEE7adaptorILb0EEEEEEESU_EE, 1
_ZN8concepts4defs21common_reference_withIRKN6ranges14basic_iteratorINS2_14adaptor_cursorIN9__gnu_cxx17__normal_iteratorIPNSt7__cxx1112basic_stringIcSt11char_traitsIcESaIcEEESt6vectorISC_SaISC_EEEENS2_19iter_transform_viewINS2_8ref_viewISG_EENS2_10indirectedIZ4mainEUlSC_E_EEE7adaptorILb0EEEEEEESU_EE:
	.byte	1
	.type	_ZN8concepts4defs7same_asIRKN6ranges14basic_iteratorINS2_14adaptor_cursorIN9__gnu_cxx17__normal_iteratorIPNSt7__cxx1112basic_stringIcSt11char_traitsIcESaIcEEESt6vectorISC_SaISC_EEEENS2_19iter_transform_viewINS2_8ref_viewISG_EENS2_10indirectedIZ4mainEUlSC_E_EEE7adaptorILb0EEEEEEESU_EE, @object
	.size	_ZN8concepts4defs7same_asIRKN6ranges14basic_iteratorINS2_14adaptor_cursorIN9__gnu_cxx17__normal_iteratorIPNSt7__cxx1112basic_stringIcSt11char_traitsIcESaIcEEESt6vectorISC_SaISC_EEEENS2_19iter_transform_viewINS2_8ref_viewISG_EENS2_10indirectedIZ4mainEUlSC_E_EEE7adaptorILb0EEEEEEESU_EE, 1
_ZN8concepts4defs7same_asIRKN6ranges14basic_iteratorINS2_14adaptor_cursorIN9__gnu_cxx17__normal_iteratorIPNSt7__cxx1112basic_stringIcSt11char_traitsIcESaIcEEESt6vectorISC_SaISC_EEEENS2_19iter_transform_viewINS2_8ref_viewISG_EENS2_10indirectedIZ4mainEUlSC_E_EEE7adaptorILb0EEEEEEESU_EE:
	.byte	1
	.type	_ZN8concepts4defs14convertible_toIRKN6ranges14basic_iteratorINS2_14adaptor_cursorIN9__gnu_cxx17__normal_iteratorIPNSt7__cxx1112basic_stringIcSt11char_traitsIcESaIcEEESt6vectorISC_SaISC_EEEENS2_19iter_transform_viewINS2_8ref_viewISG_EENS2_10indirectedIZ4mainEUlSC_E_EEE7adaptorILb0EEEEEEESU_EE, @object
	.size	_ZN8concepts4defs14convertible_toIRKN6ranges14basic_iteratorINS2_14adaptor_cursorIN9__gnu_cxx17__normal_iteratorIPNSt7__cxx1112basic_stringIcSt11char_traitsIcESaIcEEESt6vectorISC_SaISC_EEEENS2_19iter_transform_viewINS2_8ref_viewISG_EENS2_10indirectedIZ4mainEUlSC_E_EEE7adaptorILb0EEEEEEESU_EE, 1
_ZN8concepts4defs14convertible_toIRKN6ranges14basic_iteratorINS2_14adaptor_cursorIN9__gnu_cxx17__normal_iteratorIPNSt7__cxx1112basic_stringIcSt11char_traitsIcESaIcEEESt6vectorISC_SaISC_EEEENS2_19iter_transform_viewINS2_8ref_viewISG_EENS2_10indirectedIZ4mainEUlSC_E_EEE7adaptorILb0EEEEEEESU_EE:
	.byte	1
	.type	_ZN8concepts4defs25implicitly_convertible_toIRKN6ranges14basic_iteratorINS2_14adaptor_cursorIN9__gnu_cxx17__normal_iteratorIPNSt7__cxx1112basic_stringIcSt11char_traitsIcESaIcEEESt6vectorISC_SaISC_EEEENS2_19iter_transform_viewINS2_8ref_viewISG_EENS2_10indirectedIZ4mainEUlSC_E_EEE7adaptorILb0EEEEEEESU_EE, @object
	.size	_ZN8concepts4defs25implicitly_convertible_toIRKN6ranges14basic_iteratorINS2_14adaptor_cursorIN9__gnu_cxx17__normal_iteratorIPNSt7__cxx1112basic_stringIcSt11char_traitsIcESaIcEEESt6vectorISC_SaISC_EEEENS2_19iter_transform_viewINS2_8ref_viewISG_EENS2_10indirectedIZ4mainEUlSC_E_EEE7adaptorILb0EEEEEEESU_EE, 1
_ZN8concepts4defs25implicitly_convertible_toIRKN6ranges14basic_iteratorINS2_14adaptor_cursorIN9__gnu_cxx17__normal_iteratorIPNSt7__cxx1112basic_stringIcSt11char_traitsIcESaIcEEESt6vectorISC_SaISC_EEEENS2_19iter_transform_viewINS2_8ref_viewISG_EENS2_10indirectedIZ4mainEUlSC_E_EEE7adaptorILb0EEEEEEESU_EE:
	.byte	1
	.type	_ZN8concepts4defs25explicitly_convertible_toIRKN6ranges14basic_iteratorINS2_14adaptor_cursorIN9__gnu_cxx17__normal_iteratorIPNSt7__cxx1112basic_stringIcSt11char_traitsIcESaIcEEESt6vectorISC_SaISC_EEEENS2_19iter_transform_viewINS2_8ref_viewISG_EENS2_10indirectedIZ4mainEUlSC_E_EEE7adaptorILb0EEEEEEESU_EE, @object
	.size	_ZN8concepts4defs25explicitly_convertible_toIRKN6ranges14basic_iteratorINS2_14adaptor_cursorIN9__gnu_cxx17__normal_iteratorIPNSt7__cxx1112basic_stringIcSt11char_traitsIcESaIcEEESt6vectorISC_SaISC_EEEENS2_19iter_transform_viewINS2_8ref_viewISG_EENS2_10indirectedIZ4mainEUlSC_E_EEE7adaptorILb0EEEEEEESU_EE, 1
_ZN8concepts4defs25explicitly_convertible_toIRKN6ranges14basic_iteratorINS2_14adaptor_cursorIN9__gnu_cxx17__normal_iteratorIPNSt7__cxx1112basic_stringIcSt11char_traitsIcESaIcEEESt6vectorISC_SaISC_EEEENS2_19iter_transform_viewINS2_8ref_viewISG_EENS2_10indirectedIZ4mainEUlSC_E_EEE7adaptorILb0EEEEEEESU_EE:
	.byte	1
	.type	_ZN8concepts4defs7same_asIRN6ranges14basic_iteratorINS2_14adaptor_cursorIN9__gnu_cxx17__normal_iteratorIPNSt7__cxx1112basic_stringIcSt11char_traitsIcESaIcEEESt6vectorISC_SaISC_EEEENS2_19iter_transform_viewINS2_8ref_viewISG_EENS2_10indirectedIZ4mainEUlSC_E_EEE7adaptorILb0EEEEEEEST_EE, @object
	.size	_ZN8concepts4defs7same_asIRN6ranges14basic_iteratorINS2_14adaptor_cursorIN9__gnu_cxx17__normal_iteratorIPNSt7__cxx1112basic_stringIcSt11char_traitsIcESaIcEEESt6vectorISC_SaISC_EEEENS2_19iter_transform_viewINS2_8ref_viewISG_EENS2_10indirectedIZ4mainEUlSC_E_EEE7adaptorILb0EEEEEEEST_EE, 1
_ZN8concepts4defs7same_asIRN6ranges14basic_iteratorINS2_14adaptor_cursorIN9__gnu_cxx17__normal_iteratorIPNSt7__cxx1112basic_stringIcSt11char_traitsIcESaIcEEESt6vectorISC_SaISC_EEEENS2_19iter_transform_viewINS2_8ref_viewISG_EENS2_10indirectedIZ4mainEUlSC_E_EEE7adaptorILb0EEEEEEEST_EE:
	.byte	1
	.type	_ZN8concepts4defs9swappableIN6ranges14basic_iteratorINS2_14adaptor_cursorIN9__gnu_cxx17__normal_iteratorIPNSt7__cxx1112basic_stringIcSt11char_traitsIcESaIcEEESt6vectorISC_SaISC_EEEENS2_19iter_transform_viewINS2_8ref_viewISG_EENS2_10indirectedIZ4mainEUlSC_E_EEE7adaptorILb0EEEEEEEEE, @object
	.size	_ZN8concepts4defs9swappableIN6ranges14basic_iteratorINS2_14adaptor_cursorIN9__gnu_cxx17__normal_iteratorIPNSt7__cxx1112basic_stringIcSt11char_traitsIcESaIcEEESt6vectorISC_SaISC_EEEENS2_19iter_transform_viewINS2_8ref_viewISG_EENS2_10indirectedIZ4mainEUlSC_E_EEE7adaptorILb0EEEEEEEEE, 1
_ZN8concepts4defs9swappableIN6ranges14basic_iteratorINS2_14adaptor_cursorIN9__gnu_cxx17__normal_iteratorIPNSt7__cxx1112basic_stringIcSt11char_traitsIcESaIcEEESt6vectorISC_SaISC_EEEENS2_19iter_transform_viewINS2_8ref_viewISG_EENS2_10indirectedIZ4mainEUlSC_E_EEE7adaptorILb0EEEEEEEEE:
	.byte	1
	.type	_ZN8concepts15adl_swap_detail18is_adl_swappable_vIRN6ranges14basic_iteratorINS2_14adaptor_cursorIN9__gnu_cxx17__normal_iteratorIPNSt7__cxx1112basic_stringIcSt11char_traitsIcESaIcEEESt6vectorISC_SaISC_EEEENS2_19iter_transform_viewINS2_8ref_viewISG_EENS2_10indirectedIZ4mainEUlSC_E_EEE7adaptorILb0EEEEEEEST_EE, @object
	.size	_ZN8concepts15adl_swap_detail18is_adl_swappable_vIRN6ranges14basic_iteratorINS2_14adaptor_cursorIN9__gnu_cxx17__normal_iteratorIPNSt7__cxx1112basic_stringIcSt11char_traitsIcESaIcEEESt6vectorISC_SaISC_EEEENS2_19iter_transform_viewINS2_8ref_viewISG_EENS2_10indirectedIZ4mainEUlSC_E_EEE7adaptorILb0EEEEEEEST_EE, 1
_ZN8concepts15adl_swap_detail18is_adl_swappable_vIRN6ranges14basic_iteratorINS2_14adaptor_cursorIN9__gnu_cxx17__normal_iteratorIPNSt7__cxx1112basic_stringIcSt11char_traitsIcESaIcEEESt6vectorISC_SaISC_EEEENS2_19iter_transform_viewINS2_8ref_viewISG_EENS2_10indirectedIZ4mainEUlSC_E_EEE7adaptorILb0EEEEEEEST_EE:
	.zero	1
	.type	_ZN8concepts6detail12is_movable_vIN6ranges14basic_iteratorINS2_14adaptor_cursorIN9__gnu_cxx17__normal_iteratorIPNSt7__cxx1112basic_stringIcSt11char_traitsIcESaIcEEESt6vectorISC_SaISC_EEEENS2_19iter_transform_viewINS2_8ref_viewISG_EENS2_10indirectedIZ4mainEUlSC_E_EEE7adaptorILb0EEEEEEEEE, @object
	.size	_ZN8concepts6detail12is_movable_vIN6ranges14basic_iteratorINS2_14adaptor_cursorIN9__gnu_cxx17__normal_iteratorIPNSt7__cxx1112basic_stringIcSt11char_traitsIcESaIcEEESt6vectorISC_SaISC_EEEENS2_19iter_transform_viewINS2_8ref_viewISG_EENS2_10indirectedIZ4mainEUlSC_E_EEE7adaptorILb0EEEEEEEEE, 1
_ZN8concepts6detail12is_movable_vIN6ranges14basic_iteratorINS2_14adaptor_cursorIN9__gnu_cxx17__normal_iteratorIPNSt7__cxx1112basic_stringIcSt11char_traitsIcESaIcEEESt6vectorISC_SaISC_EEEENS2_19iter_transform_viewINS2_8ref_viewISG_EENS2_10indirectedIZ4mainEUlSC_E_EEE7adaptorILb0EEEEEEEEE:
	.byte	1
	.type	_ZN8concepts4defs15assignable_fromIRN6ranges14basic_iteratorINS2_14adaptor_cursorIN9__gnu_cxx17__normal_iteratorIPNSt7__cxx1112basic_stringIcSt11char_traitsIcESaIcEEESt6vectorISC_SaISC_EEEENS2_19iter_transform_viewINS2_8ref_viewISG_EENS2_10indirectedIZ4mainEUlSC_E_EEE7adaptorILb0EEEEEEERKSS_EE, @object
	.size	_ZN8concepts4defs15assignable_fromIRN6ranges14basic_iteratorINS2_14adaptor_cursorIN9__gnu_cxx17__normal_iteratorIPNSt7__cxx1112basic_stringIcSt11char_traitsIcESaIcEEESt6vectorISC_SaISC_EEEENS2_19iter_transform_viewINS2_8ref_viewISG_EENS2_10indirectedIZ4mainEUlSC_E_EEE7adaptorILb0EEEEEEERKSS_EE, 1
_ZN8concepts4defs15assignable_fromIRN6ranges14basic_iteratorINS2_14adaptor_cursorIN9__gnu_cxx17__normal_iteratorIPNSt7__cxx1112basic_stringIcSt11char_traitsIcESaIcEEESt6vectorISC_SaISC_EEEENS2_19iter_transform_viewINS2_8ref_viewISG_EENS2_10indirectedIZ4mainEUlSC_E_EEE7adaptorILb0EEEEEEERKSS_EE:
	.byte	1
	.type	_ZN8concepts4defs21default_constructibleIN6ranges14basic_iteratorINS2_14adaptor_cursorIN9__gnu_cxx17__normal_iteratorIPNSt7__cxx1112basic_stringIcSt11char_traitsIcESaIcEEESt6vectorISC_SaISC_EEEENS2_19iter_transform_viewINS2_8ref_viewISG_EENS2_10indirectedIZ4mainEUlSC_E_EEE7adaptorILb0EEEEEEEEE, @object
	.size	_ZN8concepts4defs21default_constructibleIN6ranges14basic_iteratorINS2_14adaptor_cursorIN9__gnu_cxx17__normal_iteratorIPNSt7__cxx1112basic_stringIcSt11char_traitsIcESaIcEEESt6vectorISC_SaISC_EEEENS2_19iter_transform_viewINS2_8ref_viewISG_EENS2_10indirectedIZ4mainEUlSC_E_EEE7adaptorILb0EEEEEEEEE, 1
_ZN8concepts4defs21default_constructibleIN6ranges14basic_iteratorINS2_14adaptor_cursorIN9__gnu_cxx17__normal_iteratorIPNSt7__cxx1112basic_stringIcSt11char_traitsIcESaIcEEESt6vectorISC_SaISC_EEEENS2_19iter_transform_viewINS2_8ref_viewISG_EENS2_10indirectedIZ4mainEUlSC_E_EEE7adaptorILb0EEEEEEEEE:
	.byte	1
	.type	_ZN8concepts4defs18constructible_fromIN6ranges14basic_iteratorINS2_14adaptor_cursorIN9__gnu_cxx17__normal_iteratorIPNSt7__cxx1112basic_stringIcSt11char_traitsIcESaIcEEESt6vectorISC_SaISC_EEEENS2_19iter_transform_viewINS2_8ref_viewISG_EENS2_10indirectedIZ4mainEUlSC_E_EEE7adaptorILb0EEEEEEEJEEE, @object
	.size	_ZN8concepts4defs18constructible_fromIN6ranges14basic_iteratorINS2_14adaptor_cursorIN9__gnu_cxx17__normal_iteratorIPNSt7__cxx1112basic_stringIcSt11char_traitsIcESaIcEEESt6vectorISC_SaISC_EEEENS2_19iter_transform_viewINS2_8ref_viewISG_EENS2_10indirectedIZ4mainEUlSC_E_EEE7adaptorILb0EEEEEEEJEEE, 1
_ZN8concepts4defs18constructible_fromIN6ranges14basic_iteratorINS2_14adaptor_cursorIN9__gnu_cxx17__normal_iteratorIPNSt7__cxx1112basic_stringIcSt11char_traitsIcESaIcEEESt6vectorISC_SaISC_EEEENS2_19iter_transform_viewINS2_8ref_viewISG_EENS2_10indirectedIZ4mainEUlSC_E_EEE7adaptorILb0EEEEEEEJEEE:
	.byte	1
	.text
	.type	_ZN6rangesneINS_14adaptor_cursorIN9__gnu_cxx17__normal_iteratorIPNSt7__cxx1112basic_stringIcSt11char_traitsIcESaIcEEESt6vectorIS9_SaIS9_EEEENS_19iter_transform_viewINS_8ref_viewISD_EENS_10indirectedIZ4mainEUlS9_E_EEE7adaptorILb0EEEEESO_Lb1ELi0EEEbRKNS_14basic_iteratorIT_EERKNSP_IT0_EE, @function
_ZN6rangesneINS_14adaptor_cursorIN9__gnu_cxx17__normal_iteratorIPNSt7__cxx1112basic_stringIcSt11char_traitsIcESaIcEEESt6vectorIS9_SaIS9_EEEENS_19iter_transform_viewINS_8ref_viewISD_EENS_10indirectedIZ4mainEUlS9_E_EEE7adaptorILb0EEEEESO_Lb1ELi0EEEbRKNS_14basic_iteratorIT_EERKNSP_IT0_EE:
.LFB9312:
	.cfi_startproc
	pushq	%rbp
	.cfi_def_cfa_offset 16
	.cfi_offset 6, -16
	movq	%rsp, %rbp
	.cfi_def_cfa_register 6
	subq	$16, %rsp
	movq	%rdi, -8(%rbp)
	movq	%rsi, -16(%rbp)
	movq	-16(%rbp), %rdx
	movq	-8(%rbp), %rax
	movq	%rdx, %rsi
	movq	%rax, %rdi
	call	_ZN6rangeseqINS_14adaptor_cursorIN9__gnu_cxx17__normal_iteratorIPNSt7__cxx1112basic_stringIcSt11char_traitsIcESaIcEEESt6vectorIS9_SaIS9_EEEENS_19iter_transform_viewINS_8ref_viewISD_EENS_10indirectedIZ4mainEUlS9_E_EEE7adaptorILb0EEEEESO_Lb1ELi0EEEbRKNS_14basic_iteratorIT_EERKNSP_IT0_EE
	xorl	$1, %eax
	leave
	.cfi_def_cfa 7, 8
	ret
	.cfi_endproc
.LFE9312:
	.size	_ZN6rangesneINS_14adaptor_cursorIN9__gnu_cxx17__normal_iteratorIPNSt7__cxx1112basic_stringIcSt11char_traitsIcESaIcEEESt6vectorIS9_SaIS9_EEEENS_19iter_transform_viewINS_8ref_viewISD_EENS_10indirectedIZ4mainEUlS9_E_EEE7adaptorILb0EEEEESO_Lb1ELi0EEEbRKNS_14basic_iteratorIT_EERKNSP_IT0_EE, .-_ZN6rangesneINS_14adaptor_cursorIN9__gnu_cxx17__normal_iteratorIPNSt7__cxx1112basic_stringIcSt11char_traitsIcESaIcEEESt6vectorIS9_SaIS9_EEEENS_19iter_transform_viewINS_8ref_viewISD_EENS_10indirectedIZ4mainEUlS9_E_EEE7adaptorILb0EEEEESO_Lb1ELi0EEEbRKNS_14basic_iteratorIT_EERKNSP_IT0_EE
	.type	_ZN6rangeseqINS_14adaptor_cursorIN9__gnu_cxx17__normal_iteratorIPNSt7__cxx1112basic_stringIcSt11char_traitsIcESaIcEEESt6vectorIS9_SaIS9_EEEENS_19iter_transform_viewINS_8ref_viewISD_EENS_10indirectedIZ4mainEUlS9_E_EEE7adaptorILb0EEEEESO_Lb1ELi0EEEbRKNS_14basic_iteratorIT_EERKNSP_IT0_EE, @function
_ZN6rangeseqINS_14adaptor_cursorIN9__gnu_cxx17__normal_iteratorIPNSt7__cxx1112basic_stringIcSt11char_traitsIcESaIcEEESt6vectorIS9_SaIS9_EEEENS_19iter_transform_viewINS_8ref_viewISD_EENS_10indirectedIZ4mainEUlS9_E_EEE7adaptorILb0EEEEESO_Lb1ELi0EEEbRKNS_14basic_iteratorIT_EERKNSP_IT0_EE:
.LFB9313:
	.cfi_startproc
	pushq	%rbp
	.cfi_def_cfa_offset 16
	.cfi_offset 6, -16
	movq	%rsp, %rbp
	.cfi_def_cfa_register 6
	pushq	%rbx
	subq	$24, %rsp
	.cfi_offset 3, -24
	movq	%rdi, -24(%rbp)
	movq	%rsi, -32(%rbp)
	movq	-32(%rbp), %rax
	movq	%rax, %rdi
	call	_ZN6ranges12range_access3posINS_14adaptor_cursorIN9__gnu_cxx17__normal_iteratorIPNSt7__cxx1112basic_stringIcSt11char_traitsIcESaIcEEESt6vectorISA_SaISA_EEEENS_19iter_transform_viewINS_8ref_viewISE_EENS_10indirectedIZ4mainEUlSA_E_EEE7adaptorILb0EEEEEEERKT_RKNS_14basic_iteratorISQ_EE
	movq	%rax, %rbx
	movq	-24(%rbp), %rax
	movq	%rax, %rdi
	call	_ZN6ranges12range_access3posINS_14adaptor_cursorIN9__gnu_cxx17__normal_iteratorIPNSt7__cxx1112basic_stringIcSt11char_traitsIcESaIcEEESt6vectorISA_SaISA_EEEENS_19iter_transform_viewINS_8ref_viewISE_EENS_10indirectedIZ4mainEUlSA_E_EEE7adaptorILb0EEEEEEERKT_RKNS_14basic_iteratorISQ_EE
	movq	%rbx, %rsi
	movq	%rax, %rdi
	call	_ZN6ranges12range_access5equalINS_14adaptor_cursorIN9__gnu_cxx17__normal_iteratorIPNSt7__cxx1112basic_stringIcSt11char_traitsIcESaIcEEESt6vectorISA_SaISA_EEEENS_19iter_transform_viewINS_8ref_viewISE_EENS_10indirectedIZ4mainEUlSA_E_EEE7adaptorILb0EEEEESP_EEDTcldtfp_5equalfp0_EERKT_RKT0_
	movq	-8(%rbp), %rbx
	leave
	.cfi_def_cfa 7, 8
	ret
	.cfi_endproc
.LFE9313:
	.size	_ZN6rangeseqINS_14adaptor_cursorIN9__gnu_cxx17__normal_iteratorIPNSt7__cxx1112basic_stringIcSt11char_traitsIcESaIcEEESt6vectorIS9_SaIS9_EEEENS_19iter_transform_viewINS_8ref_viewISD_EENS_10indirectedIZ4mainEUlS9_E_EEE7adaptorILb0EEEEESO_Lb1ELi0EEEbRKNS_14basic_iteratorIT_EERKNSP_IT0_EE, .-_ZN6rangeseqINS_14adaptor_cursorIN9__gnu_cxx17__normal_iteratorIPNSt7__cxx1112basic_stringIcSt11char_traitsIcESaIcEEESt6vectorIS9_SaIS9_EEEENS_19iter_transform_viewINS_8ref_viewISD_EENS_10indirectedIZ4mainEUlS9_E_EEE7adaptorILb0EEEEESO_Lb1ELi0EEEbRKNS_14basic_iteratorIT_EERKNSP_IT0_EE
	.type	_ZN6ranges12range_access5equalINS_14adaptor_cursorIN9__gnu_cxx17__normal_iteratorIPNSt7__cxx1112basic_stringIcSt11char_traitsIcESaIcEEESt6vectorISA_SaISA_EEEENS_19iter_transform_viewINS_8ref_viewISE_EENS_10indirectedIZ4mainEUlSA_E_EEE7adaptorILb0EEEEESP_EEDTcldtfp_5equalfp0_EERKT_RKT0_, @function
_ZN6ranges12range_access5equalINS_14adaptor_cursorIN9__gnu_cxx17__normal_iteratorIPNSt7__cxx1112basic_stringIcSt11char_traitsIcESaIcEEESt6vectorISA_SaISA_EEEENS_19iter_transform_viewINS_8ref_viewISE_EENS_10indirectedIZ4mainEUlSA_E_EEE7adaptorILb0EEEEESP_EEDTcldtfp_5equalfp0_EERKT_RKT0_:
.LFB9314:
	.cfi_startproc
	pushq	%rbp
	.cfi_def_cfa_offset 16
	.cfi_offset 6, -16
	movq	%rsp, %rbp
	.cfi_def_cfa_register 6
	subq	$16, %rsp
	movq	%rdi, -8(%rbp)
	movq	%rsi, -16(%rbp)
	movq	-16(%rbp), %rdx
	movq	-8(%rbp), %rax
	movq	%rdx, %rsi
	movq	%rax, %rdi
	call	_ZNK6ranges14adaptor_cursorIN9__gnu_cxx17__normal_iteratorIPNSt7__cxx1112basic_stringIcSt11char_traitsIcESaIcEEESt6vectorIS8_SaIS8_EEEENS_19iter_transform_viewINS_8ref_viewISC_EENS_10indirectedIZ4mainEUlS8_E_EEE7adaptorILb0EEEE5equalISN_EEDTcldtcl7declvalIRKT_EE6equal_fp_Li42EEERKSN_
	leave
	.cfi_def_cfa 7, 8
	ret
	.cfi_endproc
.LFE9314:
	.size	_ZN6ranges12range_access5equalINS_14adaptor_cursorIN9__gnu_cxx17__normal_iteratorIPNSt7__cxx1112basic_stringIcSt11char_traitsIcESaIcEEESt6vectorISA_SaISA_EEEENS_19iter_transform_viewINS_8ref_viewISE_EENS_10indirectedIZ4mainEUlSA_E_EEE7adaptorILb0EEEEESP_EEDTcldtfp_5equalfp0_EERKT_RKT0_, .-_ZN6ranges12range_access5equalINS_14adaptor_cursorIN9__gnu_cxx17__normal_iteratorIPNSt7__cxx1112basic_stringIcSt11char_traitsIcESaIcEEESt6vectorISA_SaISA_EEEENS_19iter_transform_viewINS_8ref_viewISE_EENS_10indirectedIZ4mainEUlSA_E_EEE7adaptorILb0EEEEESP_EEDTcldtfp_5equalfp0_EERKT_RKT0_
	.align 2
	.type	_ZN6ranges14basic_iteratorINS_14adaptor_cursorIN9__gnu_cxx17__normal_iteratorIPNSt7__cxx1112basic_stringIcSt11char_traitsIcESaIcEEESt6vectorIS9_SaIS9_EEEENS_19iter_transform_viewINS_8ref_viewISD_EENS_10indirectedIZ4mainEUlS9_E_EEE7adaptorILb0EEEEEEppIL_ZN8concepts6detail11CPP_true_fnENSS_3NilEEEENSR_9return_t_INSt9enable_ifIXaaL_ZNS_6detail15has_cursor_nextISO_EEEclT_tlST_EEEvE4typeEE6invokeIRSP_EEv, @function
_ZN6ranges14basic_iteratorINS_14adaptor_cursorIN9__gnu_cxx17__normal_iteratorIPNSt7__cxx1112basic_stringIcSt11char_traitsIcESaIcEEESt6vectorIS9_SaIS9_EEEENS_19iter_transform_viewINS_8ref_viewISD_EENS_10indirectedIZ4mainEUlS9_E_EEE7adaptorILb0EEEEEEppIL_ZN8concepts6detail11CPP_true_fnENSS_3NilEEEENSR_9return_t_INSt9enable_ifIXaaL_ZNS_6detail15has_cursor_nextISO_EEEclT_tlST_EEEvE4typeEE6invokeIRSP_EEv:
.LFB9315:
	.cfi_startproc
	pushq	%rbp
	.cfi_def_cfa_offset 16
	.cfi_offset 6, -16
	movq	%rsp, %rbp
	.cfi_def_cfa_register 6
	subq	$16, %rsp
	movq	%rdi, -8(%rbp)
	movq	-8(%rbp), %rax
	movq	%rax, %rdi
	call	_ZN6ranges14basic_iteratorINS_14adaptor_cursorIN9__gnu_cxx17__normal_iteratorIPNSt7__cxx1112basic_stringIcSt11char_traitsIcESaIcEEESt6vectorIS9_SaIS9_EEEENS_19iter_transform_viewINS_8ref_viewISD_EENS_10indirectedIZ4mainEUlS9_E_EEE7adaptorILb0EEEEEE3posEv
	movq	%rax, %rdi
	call	_ZN6ranges12range_access4nextINS_14adaptor_cursorIN9__gnu_cxx17__normal_iteratorIPNSt7__cxx1112basic_stringIcSt11char_traitsIcESaIcEEESt6vectorISA_SaISA_EEEENS_19iter_transform_viewINS_8ref_viewISE_EENS_10indirectedIZ4mainEUlSA_E_EEE7adaptorILb0EEEEEEEDTcldtfp_4nextEERT_
	movq	-8(%rbp), %rax
	leave
	.cfi_def_cfa 7, 8
	ret
	.cfi_endproc
.LFE9315:
	.size	_ZN6ranges14basic_iteratorINS_14adaptor_cursorIN9__gnu_cxx17__normal_iteratorIPNSt7__cxx1112basic_stringIcSt11char_traitsIcESaIcEEESt6vectorIS9_SaIS9_EEEENS_19iter_transform_viewINS_8ref_viewISD_EENS_10indirectedIZ4mainEUlS9_E_EEE7adaptorILb0EEEEEEppIL_ZN8concepts6detail11CPP_true_fnENSS_3NilEEEENSR_9return_t_INSt9enable_ifIXaaL_ZNS_6detail15has_cursor_nextISO_EEEclT_tlST_EEEvE4typeEE6invokeIRSP_EEv, .-_ZN6ranges14basic_iteratorINS_14adaptor_cursorIN9__gnu_cxx17__normal_iteratorIPNSt7__cxx1112basic_stringIcSt11char_traitsIcESaIcEEESt6vectorIS9_SaIS9_EEEENS_19iter_transform_viewINS_8ref_viewISD_EENS_10indirectedIZ4mainEUlS9_E_EEE7adaptorILb0EEEEEEppIL_ZN8concepts6detail11CPP_true_fnENSS_3NilEEEENSR_9return_t_INSt9enable_ifIXaaL_ZNS_6detail15has_cursor_nextISO_EEEclT_tlST_EEEvE4typeEE6invokeIRSP_EEv
	.align 2
	.type	_ZNK6ranges14basic_iteratorINS_14adaptor_cursorIN9__gnu_cxx17__normal_iteratorIPNSt7__cxx1112basic_stringIcSt11char_traitsIcESaIcEEESt6vectorIS9_SaIS9_EEEENS_19iter_transform_viewINS_8ref_viewISD_EENS_10indirectedIZ4mainEUlS9_E_EEE7adaptorILb0EEEEEEdeIL_ZN8concepts6detail11CPP_true_fnENSS_3NilEEEENSR_9return_t_INSt9enable_ifIXaaaaL_ZNS_6detail15readable_cursorISO_EEEntL_ZNSW_20is_writable_cursor_vISO_EEEclT_tlST_EEEvE4typeEE6invokeIS9_EEv, @function
_ZNK6ranges14basic_iteratorINS_14adaptor_cursorIN9__gnu_cxx17__normal_iteratorIPNSt7__cxx1112basic_stringIcSt11char_traitsIcESaIcEEESt6vectorIS9_SaIS9_EEEENS_19iter_transform_viewINS_8ref_viewISD_EENS_10indirectedIZ4mainEUlS9_E_EEE7adaptorILb0EEEEEEdeIL_ZN8concepts6detail11CPP_true_fnENSS_3NilEEEENSR_9return_t_INSt9enable_ifIXaaaaL_ZNS_6detail15readable_cursorISO_EEEntL_ZNSW_20is_writable_cursor_vISO_EEEclT_tlST_EEEvE4typeEE6invokeIS9_EEv:
.LFB9316:
	.cfi_startproc
	pushq	%rbp
	.cfi_def_cfa_offset 16
	.cfi_offset 6, -16
	movq	%rsp, %rbp
	.cfi_def_cfa_register 6
	subq	$32, %rsp
	movq	%rdi, -24(%rbp)
	movq	%rsi, -32(%rbp)
	movq	%fs:40, %rax
	movq	%rax, -8(%rbp)
	xorl	%eax, %eax
	movq	-32(%rbp), %rax
	movq	%rax, %rdi
	call	_ZNK6ranges14basic_iteratorINS_14adaptor_cursorIN9__gnu_cxx17__normal_iteratorIPNSt7__cxx1112basic_stringIcSt11char_traitsIcESaIcEEESt6vectorIS9_SaIS9_EEEENS_19iter_transform_viewINS_8ref_viewISD_EENS_10indirectedIZ4mainEUlS9_E_EEE7adaptorILb0EEEEEE3posEv
	movq	%rax, %rdx
	movq	-24(%rbp), %rax
	movq	%rdx, %rsi
	movq	%rax, %rdi
	call	_ZN6ranges12range_access4readINS_14adaptor_cursorIN9__gnu_cxx17__normal_iteratorIPNSt7__cxx1112basic_stringIcSt11char_traitsIcESaIcEEESt6vectorISA_SaISA_EEEENS_19iter_transform_viewINS_8ref_viewISE_EENS_10indirectedIZ4mainEUlSA_E_EEE7adaptorILb0EEEEEEEDTcldtfp_4readEERKT_
	movq	-8(%rbp), %rax
	subq	%fs:40, %rax
	je	.L61
	call	__stack_chk_fail@PLT
.L61:
	movq	-24(%rbp), %rax
	leave
	.cfi_def_cfa 7, 8
	ret
	.cfi_endproc
.LFE9316:
	.size	_ZNK6ranges14basic_iteratorINS_14adaptor_cursorIN9__gnu_cxx17__normal_iteratorIPNSt7__cxx1112basic_stringIcSt11char_traitsIcESaIcEEESt6vectorIS9_SaIS9_EEEENS_19iter_transform_viewINS_8ref_viewISD_EENS_10indirectedIZ4mainEUlS9_E_EEE7adaptorILb0EEEEEEdeIL_ZN8concepts6detail11CPP_true_fnENSS_3NilEEEENSR_9return_t_INSt9enable_ifIXaaaaL_ZNS_6detail15readable_cursorISO_EEEntL_ZNSW_20is_writable_cursor_vISO_EEEclT_tlST_EEEvE4typeEE6invokeIS9_EEv, .-_ZNK6ranges14basic_iteratorINS_14adaptor_cursorIN9__gnu_cxx17__normal_iteratorIPNSt7__cxx1112basic_stringIcSt11char_traitsIcESaIcEEESt6vectorIS9_SaIS9_EEEENS_19iter_transform_viewINS_8ref_viewISD_EENS_10indirectedIZ4mainEUlS9_E_EEE7adaptorILb0EEEEEEdeIL_ZN8concepts6detail11CPP_true_fnENSS_3NilEEEENSR_9return_t_INSt9enable_ifIXaaaaL_ZNS_6detail15readable_cursorISO_EEEntL_ZNSW_20is_writable_cursor_vISO_EEEclT_tlST_EEEvE4typeEE6invokeIS9_EEv
	.section	.rodata
.LC0:
	.string	"Enter a string: "
.LC3:
	.string	"Result: "
.LC4:
	.string	"Appended strings:\n"
	.text
	.globl	main
	.type	main, @function
main:
.LFB9254:
	.cfi_startproc
	.cfi_personality 0x9b,DW.ref.__gxx_personality_v0
	.cfi_lsda 0x1b,.LLSDA9254
	endbr64
	pushq	%rbp
	.cfi_def_cfa_offset 16
	.cfi_offset 6, -16
	movq	%rsp, %rbp
	.cfi_def_cfa_register 6
	pushq	%rbx
	subq	$232, %rsp
	.cfi_offset 3, -24
	movq	%fs:40, %rax
	movq	%rax, -24(%rbp)
	xorl	%eax, %eax
	leaq	-96(%rbp), %rax
	movq	%rax, %rdi
	call	_ZNSt7__cxx1112basic_stringIcSt11char_traitsIcESaIcEEC1Ev@PLT
	leaq	.LC0(%rip), %rax
	movq	%rax, %rsi
	leaq	_ZSt4cout(%rip), %rax
	movq	%rax, %rdi
.LEHB6:
	call	_ZStlsISt11char_traitsIcEERSt13basic_ostreamIcT_ES5_PKc@PLT
	leaq	-96(%rbp), %rax
	movq	%rax, %rsi
	leaq	_ZSt3cin(%rip), %rax
	movq	%rax, %rdi
	call	_ZSt7getlineIcSt11char_traitsIcESaIcEERSt13basic_istreamIT_T0_ES7_RNSt7__cxx1112basic_stringIS4_S5_T1_EE@PLT
	movq	$0, -224(%rbp)
	leaq	-96(%rbp), %rax
	movq	%rax, -216(%rbp)
	movq	-216(%rbp), %rax
	movq	%rax, %rdi
	call	_ZNSt7__cxx1112basic_stringIcSt11char_traitsIcESaIcEE5beginEv@PLT
	movq	%rax, -160(%rbp)
	movq	-216(%rbp), %rax
	movq	%rax, %rdi
	call	_ZNSt7__cxx1112basic_stringIcSt11char_traitsIcESaIcEE3endEv@PLT
	movq	%rax, -128(%rbp)
	jmp	.L63
.L66:
	leaq	-160(%rbp), %rax
	movq	%rax, %rdi
	call	_ZNK9__gnu_cxx17__normal_iteratorIPcNSt7__cxx1112basic_stringIcSt11char_traitsIcESaIcEEEEdeEv
	movzbl	(%rax), %eax
	movb	%al, -225(%rbp)
	movzbl	-225(%rbp), %eax
	movzbl	%al, %eax
	pxor	%xmm2, %xmm2
	cvtsi2sdl	%eax, %xmm2
	movq	%xmm2, %rax
	movsd	.LC1(%rip), %xmm0
	movapd	%xmm0, %xmm1
	movq	%rax, %xmm0
	call	pow@PLT
	comisd	.LC2(%rip), %xmm0
	jnb	.L64
	cvttsd2siq	%xmm0, %rax
	jmp	.L65
.L64:
	movsd	.LC2(%rip), %xmm1
	subsd	%xmm1, %xmm0
	cvttsd2siq	%xmm0, %rax
	movabsq	$-9223372036854775808, %rdx
	xorq	%rdx, %rax
.L65:
	addq	%rax, -224(%rbp)
	leaq	-160(%rbp), %rax
	movq	%rax, %rdi
	call	_ZN9__gnu_cxx17__normal_iteratorIPcNSt7__cxx1112basic_stringIcSt11char_traitsIcESaIcEEEEppEv
.L63:
	leaq	-128(%rbp), %rdx
	leaq	-160(%rbp), %rax
	movq	%rdx, %rsi
	movq	%rax, %rdi
	call	_ZN9__gnu_cxxneIPcNSt7__cxx1112basic_stringIcSt11char_traitsIcESaIcEEEEEbRKNS_17__normal_iteratorIT_T0_EESD_
	testb	%al, %al
	jne	.L66
	leaq	.LC3(%rip), %rax
	movq	%rax, %rsi
	leaq	_ZSt4cout(%rip), %rax
	movq	%rax, %rdi
	call	_ZStlsISt11char_traitsIcEERSt13basic_ostreamIcT_ES5_PKc@PLT
	movq	%rax, %rdx
	movq	-224(%rbp), %rax
	movq	%rax, %rsi
	movq	%rdx, %rdi
	call	_ZNSolsEy@PLT
	movq	_ZSt4endlIcSt11char_traitsIcEERSt13basic_ostreamIT_T0_ES6_@GOTPCREL(%rip), %rdx
	movq	%rdx, %rsi
	movq	%rax, %rdi
	call	_ZNSolsEPFRSoS_E@PLT
.LEHE6:
	leaq	-128(%rbp), %rax
	movq	%rax, %rdi
	call	_ZNSaINSt7__cxx1112basic_stringIcSt11char_traitsIcESaIcEEEEC1Ev
	leaq	-128(%rbp), %rcx
	leaq	-96(%rbp), %rdx
	leaq	-160(%rbp), %rax
	movl	$10, %esi
	movq	%rax, %rdi
.LEHB7:
	call	_ZNSt6vectorINSt7__cxx1112basic_stringIcSt11char_traitsIcESaIcEEESaIS5_EEC1EmRKS5_RKS6_
.LEHE7:
	leaq	-128(%rbp), %rax
	movq	%rax, %rdi
	call	_ZNSaINSt7__cxx1112basic_stringIcSt11char_traitsIcESaIcEEEED1Ev
	leaq	_ZN6ranges5views9transformE(%rip), %rax
	movq	%rax, %rdi
.LEHB8:
	call	_ZNK6ranges5views12transform_fnclIZ4mainEUlNSt7__cxx1112basic_stringIcSt11char_traitsIcESaIcEEEE_EEDaT_
	leaq	-128(%rbp), %rax
	leaq	-160(%rbp), %rdx
	movq	%rdx, %rsi
	movq	%rax, %rdi
	call	_ZN6ranges5views20view_closure_base_nsorIRSt6vectorINSt7__cxx1112basic_stringIcSt11char_traitsIcESaIcEEESaIS9_EENS_6detail13bind_back_fn_INS0_17transform_base_fnEJZ4mainEUlS9_E_EEELb1ELi0ELi0EEEDaOT_NS0_12view_closureIT0_EE
.LEHE8:
	leaq	.LC4(%rip), %rax
	movq	%rax, %rsi
	leaq	_ZSt4cout(%rip), %rax
	movq	%rax, %rdi
.LEHB9:
	call	_ZStlsISt11char_traitsIcEERSt13basic_ostreamIcT_ES5_PKc@PLT
	leaq	-128(%rbp), %rax
	movq	%rax, -208(%rbp)
	movq	-208(%rbp), %rax
	movq	%rax, %rdi
	call	_ZN6ranges11view_facadeINS_19iter_transform_viewINS_8ref_viewISt6vectorINSt7__cxx1112basic_stringIcSt11char_traitsIcESaIcEEESaIS9_EEEENS_10indirectedIZ4mainEUlS9_E_EEEELNS_11cardinalityEn1EE5beginISG_Lb1ELi0EEENS_14basic_iteratorINSt5decayIDTclsrNS_12range_accessE12begin_cursorcl7declvalIRT_EEEEE4typeEEEv
	movq	%rax, -192(%rbp)
	movq	%rdx, -184(%rbp)
	movq	-208(%rbp), %rax
	movq	%rax, %rdi
	call	_ZN6ranges11view_facadeINS_19iter_transform_viewINS_8ref_viewISt6vectorINSt7__cxx1112basic_stringIcSt11char_traitsIcESaIcEEESaIS9_EEEENS_10indirectedIZ4mainEUlS9_E_EEEELNS_11cardinalityEn1EE3endISG_Lb1ELi0EEEN4meta6detail4_if_INSK_4listIJSt17integral_constantIbX7same_asINSt5decayIDTclsrNS_12range_accessE12begin_cursorcl7declvalIRT_EEEEE4typeENSP_IDTclsrSQ_10end_cursorcl7declvalISS_EEEEE4typeEEEENS_14basic_iteratorISV_EESY_EEESO_IbLb1EEE4typeEv
	movq	%rax, -176(%rbp)
	movq	%rdx, -168(%rbp)
	jmp	.L67
.L68:
	leaq	-64(%rbp), %rax
	leaq	-192(%rbp), %rdx
	movq	%rdx, %rsi
	movq	%rax, %rdi
	call	_ZNK6ranges14basic_iteratorINS_14adaptor_cursorIN9__gnu_cxx17__normal_iteratorIPNSt7__cxx1112basic_stringIcSt11char_traitsIcESaIcEEESt6vectorIS9_SaIS9_EEEENS_19iter_transform_viewINS_8ref_viewISD_EENS_10indirectedIZ4mainEUlS9_E_EEE7adaptorILb0EEEEEEdeIL_ZN8concepts6detail11CPP_true_fnENSS_3NilEEEENSR_9return_t_INSt9enable_ifIXaaaaL_ZNS_6detail15readable_cursorISO_EEEntL_ZNSW_20is_writable_cursor_vISO_EEEclT_tlST_EEEvE4typeEE6invokeIS9_EEv
.LEHE9:
	leaq	-64(%rbp), %rax
	movq	%rax, -200(%rbp)
	movq	-200(%rbp), %rax
	movq	%rax, %rsi
	leaq	_ZSt4cout(%rip), %rax
	movq	%rax, %rdi
.LEHB10:
	call	_ZStlsIcSt11char_traitsIcESaIcEERSt13basic_ostreamIT_T0_ES7_RKNSt7__cxx1112basic_stringIS4_S5_T1_EE@PLT
	movq	_ZSt4endlIcSt11char_traitsIcEERSt13basic_ostreamIT_T0_ES6_@GOTPCREL(%rip), %rdx
	movq	%rdx, %rsi
	movq	%rax, %rdi
	call	_ZNSolsEPFRSoS_E@PLT
.LEHE10:
	leaq	-64(%rbp), %rax
	movq	%rax, %rdi
	call	_ZNSt7__cxx1112basic_stringIcSt11char_traitsIcESaIcEED1Ev@PLT
	leaq	-192(%rbp), %rax
	movq	%rax, %rdi
.LEHB11:
	call	_ZN6ranges14basic_iteratorINS_14adaptor_cursorIN9__gnu_cxx17__normal_iteratorIPNSt7__cxx1112basic_stringIcSt11char_traitsIcESaIcEEESt6vectorIS9_SaIS9_EEEENS_19iter_transform_viewINS_8ref_viewISD_EENS_10indirectedIZ4mainEUlS9_E_EEE7adaptorILb0EEEEEEppIL_ZN8concepts6detail11CPP_true_fnENSS_3NilEEEENSR_9return_t_INSt9enable_ifIXaaL_ZNS_6detail15has_cursor_nextISO_EEEclT_tlST_EEEvE4typeEE6invokeIRSP_EEv
.L67:
	leaq	-176(%rbp), %rdx
	leaq	-192(%rbp), %rax
	movq	%rdx, %rsi
	movq	%rax, %rdi
	call	_ZN6rangesneINS_14adaptor_cursorIN9__gnu_cxx17__normal_iteratorIPNSt7__cxx1112basic_stringIcSt11char_traitsIcESaIcEEESt6vectorIS9_SaIS9_EEEENS_19iter_transform_viewINS_8ref_viewISD_EENS_10indirectedIZ4mainEUlS9_E_EEE7adaptorILb0EEEEESO_Lb1ELi0EEEbRKNS_14basic_iteratorIT_EERKNSP_IT0_EE
.LEHE11:
	testb	%al, %al
	jne	.L68
	movl	$0, %ebx
	leaq	-128(%rbp), %rax
	movq	%rax, %rdi
	call	_ZN6ranges14transform_viewINS_8ref_viewISt6vectorINSt7__cxx1112basic_stringIcSt11char_traitsIcESaIcEEESaIS8_EEEEZ4mainEUlS8_E_ED1Ev
	leaq	-160(%rbp), %rax
	movq	%rax, %rdi
	call	_ZNSt6vectorINSt7__cxx1112basic_stringIcSt11char_traitsIcESaIcEEESaIS5_EED1Ev
	leaq	-96(%rbp), %rax
	movq	%rax, %rdi
	call	_ZNSt7__cxx1112basic_stringIcSt11char_traitsIcESaIcEED1Ev@PLT
	movl	%ebx, %eax
	movq	-24(%rbp), %rdx
	subq	%fs:40, %rdx
	je	.L75
	jmp	.L81
.L77:
	endbr64
	movq	%rax, %rbx
	leaq	-128(%rbp), %rax
	movq	%rax, %rdi
	call	_ZNSaINSt7__cxx1112basic_stringIcSt11char_traitsIcESaIcEEEED1Ev
	jmp	.L71
.L80:
	endbr64
	movq	%rax, %rbx
	leaq	-64(%rbp), %rax
	movq	%rax, %rdi
	call	_ZNSt7__cxx1112basic_stringIcSt11char_traitsIcESaIcEED1Ev@PLT
	jmp	.L73
.L79:
	endbr64
	movq	%rax, %rbx
.L73:
	leaq	-128(%rbp), %rax
	movq	%rax, %rdi
	call	_ZN6ranges14transform_viewINS_8ref_viewISt6vectorINSt7__cxx1112basic_stringIcSt11char_traitsIcESaIcEEESaIS8_EEEEZ4mainEUlS8_E_ED1Ev
	jmp	.L74
.L78:
	endbr64
	movq	%rax, %rbx
.L74:
	leaq	-160(%rbp), %rax
	movq	%rax, %rdi
	call	_ZNSt6vectorINSt7__cxx1112basic_stringIcSt11char_traitsIcESaIcEEESaIS5_EED1Ev
	jmp	.L71
.L76:
	endbr64
	movq	%rax, %rbx
.L71:
	leaq	-96(%rbp), %rax
	movq	%rax, %rdi
	call	_ZNSt7__cxx1112basic_stringIcSt11char_traitsIcESaIcEED1Ev@PLT
	movq	%rbx, %rax
	movq	%rax, %rdi
.LEHB12:
	call	_Unwind_Resume@PLT
.LEHE12:
.L81:
	call	__stack_chk_fail@PLT
.L75:
	movq	-8(%rbp), %rbx
	leave
	.cfi_def_cfa 7, 8
	ret
	.cfi_endproc
.LFE9254:
	.section	.gcc_except_table
.LLSDA9254:
	.byte	0xff
	.byte	0xff
	.byte	0x1
	.uleb128 .LLSDACSE9254-.LLSDACSB9254
.LLSDACSB9254:
	.uleb128 .LEHB6-.LFB9254
	.uleb128 .LEHE6-.LEHB6
	.uleb128 .L76-.LFB9254
	.uleb128 0
	.uleb128 .LEHB7-.LFB9254
	.uleb128 .LEHE7-.LEHB7
	.uleb128 .L77-.LFB9254
	.uleb128 0
	.uleb128 .LEHB8-.LFB9254
	.uleb128 .LEHE8-.LEHB8
	.uleb128 .L78-.LFB9254
	.uleb128 0
	.uleb128 .LEHB9-.LFB9254
	.uleb128 .LEHE9-.LEHB9
	.uleb128 .L79-.LFB9254
	.uleb128 0
	.uleb128 .LEHB10-.LFB9254
	.uleb128 .LEHE10-.LEHB10
	.uleb128 .L80-.LFB9254
	.uleb128 0
	.uleb128 .LEHB11-.LFB9254
	.uleb128 .LEHE11-.LEHB11
	.uleb128 .L79-.LFB9254
	.uleb128 0
	.uleb128 .LEHB12-.LFB9254
	.uleb128 .LEHE12-.LEHB12
	.uleb128 0
	.uleb128 0
.LLSDACSE9254:
	.text
	.size	main, .-main
	.section	.text._ZNSt7__cxx1112basic_stringIcSt11char_traitsIcESaIcEE12_Alloc_hiderD2Ev,"axG",@progbits,_ZNSt7__cxx1112basic_stringIcSt11char_traitsIcESaIcEE12_Alloc_hiderD5Ev,comdat
	.align 2
	.weak	_ZNSt7__cxx1112basic_stringIcSt11char_traitsIcESaIcEE12_Alloc_hiderD2Ev
	.type	_ZNSt7__cxx1112basic_stringIcSt11char_traitsIcESaIcEE12_Alloc_hiderD2Ev, @function
_ZNSt7__cxx1112basic_stringIcSt11char_traitsIcESaIcEE12_Alloc_hiderD2Ev:
.LFB9476:
	.cfi_startproc
	endbr64
	pushq	%rbp
	.cfi_def_cfa_offset 16
	.cfi_offset 6, -16
	movq	%rsp, %rbp
	.cfi_def_cfa_register 6
	subq	$16, %rsp
	movq	%rdi, -8(%rbp)
	movq	-8(%rbp), %rax
	movq	%rax, %rdi
	call	_ZNSaIcED2Ev@PLT
	nop
	leave
	.cfi_def_cfa 7, 8
	ret
	.cfi_endproc
.LFE9476:
	.size	_ZNSt7__cxx1112basic_stringIcSt11char_traitsIcESaIcEE12_Alloc_hiderD2Ev, .-_ZNSt7__cxx1112basic_stringIcSt11char_traitsIcESaIcEE12_Alloc_hiderD2Ev
	.weak	_ZNSt7__cxx1112basic_stringIcSt11char_traitsIcESaIcEE12_Alloc_hiderD1Ev
	.set	_ZNSt7__cxx1112basic_stringIcSt11char_traitsIcESaIcEE12_Alloc_hiderD1Ev,_ZNSt7__cxx1112basic_stringIcSt11char_traitsIcESaIcEE12_Alloc_hiderD2Ev
	.section	.text._ZNSt7__cxx1112basic_stringIcSt11char_traitsIcESaIcEEC2IS3_EEmcRKS3_,"axG",@progbits,_ZNSt7__cxx1112basic_stringIcSt11char_traitsIcESaIcEEC5IS3_EEmcRKS3_,comdat
	.align 2
	.weak	_ZNSt7__cxx1112basic_stringIcSt11char_traitsIcESaIcEEC2IS3_EEmcRKS3_
	.type	_ZNSt7__cxx1112basic_stringIcSt11char_traitsIcESaIcEEC2IS3_EEmcRKS3_, @function
_ZNSt7__cxx1112basic_stringIcSt11char_traitsIcESaIcEEC2IS3_EEmcRKS3_:
.LFB9478:
	.cfi_startproc
	.cfi_personality 0x9b,DW.ref.__gxx_personality_v0
	.cfi_lsda 0x1b,.LLSDA9478
	endbr64
	pushq	%rbp
	.cfi_def_cfa_offset 16
	.cfi_offset 6, -16
	movq	%rsp, %rbp
	.cfi_def_cfa_register 6
	pushq	%rbx
	subq	$40, %rsp
	.cfi_offset 3, -24
	movq	%rdi, -24(%rbp)
	movq	%rsi, -32(%rbp)
	movl	%edx, %eax
	movq	%rcx, -48(%rbp)
	movb	%al, -36(%rbp)
	movq	-24(%rbp), %rbx
	movq	-24(%rbp), %rax
	movq	%rax, %rdi
.LEHB13:
	call	_ZNSt7__cxx1112basic_stringIcSt11char_traitsIcESaIcEE13_M_local_dataEv@PLT
	movq	%rax, %rcx
	movq	-48(%rbp), %rax
	movq	%rax, %rdx
	movq	%rcx, %rsi
	movq	%rbx, %rdi
	call	_ZNSt7__cxx1112basic_stringIcSt11char_traitsIcESaIcEE12_Alloc_hiderC1EPcRKS3_@PLT
.LEHE13:
	movsbl	-36(%rbp), %edx
	movq	-32(%rbp), %rcx
	movq	-24(%rbp), %rax
	movq	%rcx, %rsi
	movq	%rax, %rdi
.LEHB14:
	call	_ZNSt7__cxx1112basic_stringIcSt11char_traitsIcESaIcEE12_M_constructEmc@PLT
.LEHE14:
	jmp	.L86
.L85:
	endbr64
	movq	%rax, %rbx
	movq	-24(%rbp), %rax
	movq	%rax, %rdi
	call	_ZNSt7__cxx1112basic_stringIcSt11char_traitsIcESaIcEE12_Alloc_hiderD1Ev
	movq	%rbx, %rax
	movq	%rax, %rdi
.LEHB15:
	call	_Unwind_Resume@PLT
.LEHE15:
.L86:
	movq	-8(%rbp), %rbx
	leave
	.cfi_def_cfa 7, 8
	ret
	.cfi_endproc
.LFE9478:
	.section	.gcc_except_table
.LLSDA9478:
	.byte	0xff
	.byte	0xff
	.byte	0x1
	.uleb128 .LLSDACSE9478-.LLSDACSB9478
.LLSDACSB9478:
	.uleb128 .LEHB13-.LFB9478
	.uleb128 .LEHE13-.LEHB13
	.uleb128 0
	.uleb128 0
	.uleb128 .LEHB14-.LFB9478
	.uleb128 .LEHE14-.LEHB14
	.uleb128 .L85-.LFB9478
	.uleb128 0
	.uleb128 .LEHB15-.LFB9478
	.uleb128 .LEHE15-.LEHB15
	.uleb128 0
	.uleb128 0
.LLSDACSE9478:
	.section	.text._ZNSt7__cxx1112basic_stringIcSt11char_traitsIcESaIcEEC2IS3_EEmcRKS3_,"axG",@progbits,_ZNSt7__cxx1112basic_stringIcSt11char_traitsIcESaIcEEC5IS3_EEmcRKS3_,comdat
	.size	_ZNSt7__cxx1112basic_stringIcSt11char_traitsIcESaIcEEC2IS3_EEmcRKS3_, .-_ZNSt7__cxx1112basic_stringIcSt11char_traitsIcESaIcEEC2IS3_EEmcRKS3_
	.weak	_ZNSt7__cxx1112basic_stringIcSt11char_traitsIcESaIcEEC1IS3_EEmcRKS3_
	.set	_ZNSt7__cxx1112basic_stringIcSt11char_traitsIcESaIcEEC1IS3_EEmcRKS3_,_ZNSt7__cxx1112basic_stringIcSt11char_traitsIcESaIcEEC2IS3_EEmcRKS3_
	.weak	_ZZNSt8__detail18__to_chars_10_implIjEEvPcjT_E8__digits
	.section	.rodata._ZZNSt8__detail18__to_chars_10_implIjEEvPcjT_E8__digits,"aG",@progbits,_ZZNSt8__detail18__to_chars_10_implIjEEvPcjT_E8__digits,comdat
	.align 32
	.type	_ZZNSt8__detail18__to_chars_10_implIjEEvPcjT_E8__digits, @gnu_unique_object
	.size	_ZZNSt8__detail18__to_chars_10_implIjEEvPcjT_E8__digits, 201
_ZZNSt8__detail18__to_chars_10_implIjEEvPcjT_E8__digits:
	.string	"00010203040506070809101112131415161718192021222324252627282930313233343536373839404142434445464748495051525354555657585960616263646566676869707172737475767778798081828384858687888990919293949596979899"
	.section	.text._ZNSt8__detail18__to_chars_10_implIjEEvPcjT_,"axG",@progbits,_ZNSt8__detail18__to_chars_10_implIjEEvPcjT_,comdat
	.weak	_ZNSt8__detail18__to_chars_10_implIjEEvPcjT_
	.type	_ZNSt8__detail18__to_chars_10_implIjEEvPcjT_, @function
_ZNSt8__detail18__to_chars_10_implIjEEvPcjT_:
.LFB9484:
	.cfi_startproc
	endbr64
	pushq	%rbp
	.cfi_def_cfa_offset 16
	.cfi_offset 6, -16
	movq	%rsp, %rbp
	.cfi_def_cfa_register 6
	movq	%rdi, -24(%rbp)
	movl	%esi, -28(%rbp)
	movl	%edx, -32(%rbp)
	movl	-28(%rbp), %eax
	subl	$1, %eax
	movl	%eax, -12(%rbp)
	jmp	.L88
.L89:
	movl	-32(%rbp), %edx
	movl	%edx, %eax
	imulq	$1374389535, %rax, %rax
	shrq	$32, %rax
	shrl	$5, %eax
	imull	$100, %eax, %ecx
	movl	%edx, %eax
	subl	%ecx, %eax
	addl	%eax, %eax
	movl	%eax, -4(%rbp)
	movl	-32(%rbp), %eax
	movl	%eax, %eax
	imulq	$1374389535, %rax, %rax
	shrq	$32, %rax
	shrl	$5, %eax
	movl	%eax, -32(%rbp)
	movl	-4(%rbp), %eax
	leal	1(%rax), %ecx
	movl	-12(%rbp), %edx
	movq	-24(%rbp), %rax
	addq	%rax, %rdx
	movl	%ecx, %ecx
	leaq	_ZZNSt8__detail18__to_chars_10_implIjEEvPcjT_E8__digits(%rip), %rax
	movzbl	(%rcx,%rax), %eax
	movb	%al, (%rdx)
	movl	-12(%rbp), %eax
	subl	$1, %eax
	movl	%eax, %edx
	movq	-24(%rbp), %rax
	addq	%rax, %rdx
	movl	-4(%rbp), %eax
	leaq	_ZZNSt8__detail18__to_chars_10_implIjEEvPcjT_E8__digits(%rip), %rcx
	movzbl	(%rax,%rcx), %eax
	movb	%al, (%rdx)
	subl	$2, -12(%rbp)
.L88:
	cmpl	$99, -32(%rbp)
	ja	.L89
	cmpl	$9, -32(%rbp)
	jbe	.L90
	movl	-32(%rbp), %eax
	addl	%eax, %eax
	movl	%eax, -8(%rbp)
	movl	-8(%rbp), %eax
	leal	1(%rax), %ecx
	movq	-24(%rbp), %rax
	leaq	1(%rax), %rdx
	movl	%ecx, %ecx
	leaq	_ZZNSt8__detail18__to_chars_10_implIjEEvPcjT_E8__digits(%rip), %rax
	movzbl	(%rcx,%rax), %eax
	movb	%al, (%rdx)
	movl	-8(%rbp), %eax
	leaq	_ZZNSt8__detail18__to_chars_10_implIjEEvPcjT_E8__digits(%rip), %rdx
	movzbl	(%rax,%rdx), %edx
	movq	-24(%rbp), %rax
	movb	%dl, (%rax)
	jmp	.L92
.L90:
	movl	-32(%rbp), %eax
	addl	$48, %eax
	movl	%eax, %edx
	movq	-24(%rbp), %rax
	movb	%dl, (%rax)
.L92:
	nop
	popq	%rbp
	.cfi_def_cfa 7, 8
	ret
	.cfi_endproc
.LFE9484:
	.size	_ZNSt8__detail18__to_chars_10_implIjEEvPcjT_, .-_ZNSt8__detail18__to_chars_10_implIjEEvPcjT_
	.section	.text._ZN9__gnu_cxxneIPcNSt7__cxx1112basic_stringIcSt11char_traitsIcESaIcEEEEEbRKNS_17__normal_iteratorIT_T0_EESD_,"axG",@progbits,_ZN9__gnu_cxxneIPcNSt7__cxx1112basic_stringIcSt11char_traitsIcESaIcEEEEEbRKNS_17__normal_iteratorIT_T0_EESD_,comdat
	.weak	_ZN9__gnu_cxxneIPcNSt7__cxx1112basic_stringIcSt11char_traitsIcESaIcEEEEEbRKNS_17__normal_iteratorIT_T0_EESD_
	.type	_ZN9__gnu_cxxneIPcNSt7__cxx1112basic_stringIcSt11char_traitsIcESaIcEEEEEbRKNS_17__normal_iteratorIT_T0_EESD_, @function
_ZN9__gnu_cxxneIPcNSt7__cxx1112basic_stringIcSt11char_traitsIcESaIcEEEEEbRKNS_17__normal_iteratorIT_T0_EESD_:
.LFB9701:
	.cfi_startproc
	endbr64
	pushq	%rbp
	.cfi_def_cfa_offset 16
	.cfi_offset 6, -16
	movq	%rsp, %rbp
	.cfi_def_cfa_register 6
	pushq	%rbx
	subq	$24, %rsp
	.cfi_offset 3, -24
	movq	%rdi, -24(%rbp)
	movq	%rsi, -32(%rbp)
	movq	-24(%rbp), %rax
	movq	%rax, %rdi
	call	_ZNK9__gnu_cxx17__normal_iteratorIPcNSt7__cxx1112basic_stringIcSt11char_traitsIcESaIcEEEE4baseEv
	movq	(%rax), %rbx
	movq	-32(%rbp), %rax
	movq	%rax, %rdi
	call	_ZNK9__gnu_cxx17__normal_iteratorIPcNSt7__cxx1112basic_stringIcSt11char_traitsIcESaIcEEEE4baseEv
	movq	(%rax), %rax
	cmpq	%rax, %rbx
	setne	%al
	movq	-8(%rbp), %rbx
	leave
	.cfi_def_cfa 7, 8
	ret
	.cfi_endproc
.LFE9701:
	.size	_ZN9__gnu_cxxneIPcNSt7__cxx1112basic_stringIcSt11char_traitsIcESaIcEEEEEbRKNS_17__normal_iteratorIT_T0_EESD_, .-_ZN9__gnu_cxxneIPcNSt7__cxx1112basic_stringIcSt11char_traitsIcESaIcEEEEEbRKNS_17__normal_iteratorIT_T0_EESD_
	.section	.text._ZN9__gnu_cxx17__normal_iteratorIPcNSt7__cxx1112basic_stringIcSt11char_traitsIcESaIcEEEEppEv,"axG",@progbits,_ZN9__gnu_cxx17__normal_iteratorIPcNSt7__cxx1112basic_stringIcSt11char_traitsIcESaIcEEEEppEv,comdat
	.align 2
	.weak	_ZN9__gnu_cxx17__normal_iteratorIPcNSt7__cxx1112basic_stringIcSt11char_traitsIcESaIcEEEEppEv
	.type	_ZN9__gnu_cxx17__normal_iteratorIPcNSt7__cxx1112basic_stringIcSt11char_traitsIcESaIcEEEEppEv, @function
_ZN9__gnu_cxx17__normal_iteratorIPcNSt7__cxx1112basic_stringIcSt11char_traitsIcESaIcEEEEppEv:
.LFB9702:
	.cfi_startproc
	endbr64
	pushq	%rbp
	.cfi_def_cfa_offset 16
	.cfi_offset 6, -16
	movq	%rsp, %rbp
	.cfi_def_cfa_register 6
	movq	%rdi, -8(%rbp)
	movq	-8(%rbp), %rax
	movq	(%rax), %rax
	leaq	1(%rax), %rdx
	movq	-8(%rbp), %rax
	movq	%rdx, (%rax)
	movq	-8(%rbp), %rax
	popq	%rbp
	.cfi_def_cfa 7, 8
	ret
	.cfi_endproc
.LFE9702:
	.size	_ZN9__gnu_cxx17__normal_iteratorIPcNSt7__cxx1112basic_stringIcSt11char_traitsIcESaIcEEEEppEv, .-_ZN9__gnu_cxx17__normal_iteratorIPcNSt7__cxx1112basic_stringIcSt11char_traitsIcESaIcEEEEppEv
	.section	.text._ZNK9__gnu_cxx17__normal_iteratorIPcNSt7__cxx1112basic_stringIcSt11char_traitsIcESaIcEEEEdeEv,"axG",@progbits,_ZNK9__gnu_cxx17__normal_iteratorIPcNSt7__cxx1112basic_stringIcSt11char_traitsIcESaIcEEEEdeEv,comdat
	.align 2
	.weak	_ZNK9__gnu_cxx17__normal_iteratorIPcNSt7__cxx1112basic_stringIcSt11char_traitsIcESaIcEEEEdeEv
	.type	_ZNK9__gnu_cxx17__normal_iteratorIPcNSt7__cxx1112basic_stringIcSt11char_traitsIcESaIcEEEEdeEv, @function
_ZNK9__gnu_cxx17__normal_iteratorIPcNSt7__cxx1112basic_stringIcSt11char_traitsIcESaIcEEEEdeEv:
.LFB9703:
	.cfi_startproc
	endbr64
	pushq	%rbp
	.cfi_def_cfa_offset 16
	.cfi_offset 6, -16
	movq	%rsp, %rbp
	.cfi_def_cfa_register 6
	movq	%rdi, -8(%rbp)
	movq	-8(%rbp), %rax
	movq	(%rax), %rax
	popq	%rbp
	.cfi_def_cfa 7, 8
	ret
	.cfi_endproc
.LFE9703:
	.size	_ZNK9__gnu_cxx17__normal_iteratorIPcNSt7__cxx1112basic_stringIcSt11char_traitsIcESaIcEEEEdeEv, .-_ZNK9__gnu_cxx17__normal_iteratorIPcNSt7__cxx1112basic_stringIcSt11char_traitsIcESaIcEEEEdeEv
	.section	.text._ZNSaINSt7__cxx1112basic_stringIcSt11char_traitsIcESaIcEEEEC2Ev,"axG",@progbits,_ZNSaINSt7__cxx1112basic_stringIcSt11char_traitsIcESaIcEEEEC5Ev,comdat
	.align 2
	.weak	_ZNSaINSt7__cxx1112basic_stringIcSt11char_traitsIcESaIcEEEEC2Ev
	.type	_ZNSaINSt7__cxx1112basic_stringIcSt11char_traitsIcESaIcEEEEC2Ev, @function
_ZNSaINSt7__cxx1112basic_stringIcSt11char_traitsIcESaIcEEEEC2Ev:
.LFB9708:
	.cfi_startproc
	endbr64
	pushq	%rbp
	.cfi_def_cfa_offset 16
	.cfi_offset 6, -16
	movq	%rsp, %rbp
	.cfi_def_cfa_register 6
	subq	$16, %rsp
	movq	%rdi, -8(%rbp)
	movq	-8(%rbp), %rax
	movq	%rax, %rdi
	call	_ZN9__gnu_cxx13new_allocatorINSt7__cxx1112basic_stringIcSt11char_traitsIcESaIcEEEEC2Ev
	nop
	leave
	.cfi_def_cfa 7, 8
	ret
	.cfi_endproc
.LFE9708:
	.size	_ZNSaINSt7__cxx1112basic_stringIcSt11char_traitsIcESaIcEEEEC2Ev, .-_ZNSaINSt7__cxx1112basic_stringIcSt11char_traitsIcESaIcEEEEC2Ev
	.weak	_ZNSaINSt7__cxx1112basic_stringIcSt11char_traitsIcESaIcEEEEC1Ev
	.set	_ZNSaINSt7__cxx1112basic_stringIcSt11char_traitsIcESaIcEEEEC1Ev,_ZNSaINSt7__cxx1112basic_stringIcSt11char_traitsIcESaIcEEEEC2Ev
	.section	.text._ZNSaINSt7__cxx1112basic_stringIcSt11char_traitsIcESaIcEEEED2Ev,"axG",@progbits,_ZNSaINSt7__cxx1112basic_stringIcSt11char_traitsIcESaIcEEEED5Ev,comdat
	.align 2
	.weak	_ZNSaINSt7__cxx1112basic_stringIcSt11char_traitsIcESaIcEEEED2Ev
	.type	_ZNSaINSt7__cxx1112basic_stringIcSt11char_traitsIcESaIcEEEED2Ev, @function
_ZNSaINSt7__cxx1112basic_stringIcSt11char_traitsIcESaIcEEEED2Ev:
.LFB9711:
	.cfi_startproc
	endbr64
	pushq	%rbp
	.cfi_def_cfa_offset 16
	.cfi_offset 6, -16
	movq	%rsp, %rbp
	.cfi_def_cfa_register 6
	subq	$16, %rsp
	movq	%rdi, -8(%rbp)
	movq	-8(%rbp), %rax
	movq	%rax, %rdi
	call	_ZN9__gnu_cxx13new_allocatorINSt7__cxx1112basic_stringIcSt11char_traitsIcESaIcEEEED2Ev
	nop
	leave
	.cfi_def_cfa 7, 8
	ret
	.cfi_endproc
.LFE9711:
	.size	_ZNSaINSt7__cxx1112basic_stringIcSt11char_traitsIcESaIcEEEED2Ev, .-_ZNSaINSt7__cxx1112basic_stringIcSt11char_traitsIcESaIcEEEED2Ev
	.weak	_ZNSaINSt7__cxx1112basic_stringIcSt11char_traitsIcESaIcEEEED1Ev
	.set	_ZNSaINSt7__cxx1112basic_stringIcSt11char_traitsIcESaIcEEEED1Ev,_ZNSaINSt7__cxx1112basic_stringIcSt11char_traitsIcESaIcEEEED2Ev
	.section	.text._ZNSt6vectorINSt7__cxx1112basic_stringIcSt11char_traitsIcESaIcEEESaIS5_EEC2EmRKS5_RKS6_,"axG",@progbits,_ZNSt6vectorINSt7__cxx1112basic_stringIcSt11char_traitsIcESaIcEEESaIS5_EEC5EmRKS5_RKS6_,comdat
	.align 2
	.weak	_ZNSt6vectorINSt7__cxx1112basic_stringIcSt11char_traitsIcESaIcEEESaIS5_EEC2EmRKS5_RKS6_
	.type	_ZNSt6vectorINSt7__cxx1112basic_stringIcSt11char_traitsIcESaIcEEESaIS5_EEC2EmRKS5_RKS6_, @function
_ZNSt6vectorINSt7__cxx1112basic_stringIcSt11char_traitsIcESaIcEEESaIS5_EEC2EmRKS5_RKS6_:
.LFB9714:
	.cfi_startproc
	.cfi_personality 0x9b,DW.ref.__gxx_personality_v0
	.cfi_lsda 0x1b,.LLSDA9714
	endbr64
	pushq	%rbp
	.cfi_def_cfa_offset 16
	.cfi_offset 6, -16
	movq	%rsp, %rbp
	.cfi_def_cfa_register 6
	pushq	%rbx
	subq	$40, %rsp
	.cfi_offset 3, -24
	movq	%rdi, -24(%rbp)
	movq	%rsi, -32(%rbp)
	movq	%rdx, -40(%rbp)
	movq	%rcx, -48(%rbp)
	movq	-24(%rbp), %rbx
	movq	-48(%rbp), %rdx
	movq	-32(%rbp), %rax
	movq	%rdx, %rsi
	movq	%rax, %rdi
.LEHB16:
	call	_ZNSt6vectorINSt7__cxx1112basic_stringIcSt11char_traitsIcESaIcEEESaIS5_EE17_S_check_init_lenEmRKS6_
	movq	%rax, %rcx
	movq	-48(%rbp), %rax
	movq	%rax, %rdx
	movq	%rcx, %rsi
	movq	%rbx, %rdi
	call	_ZNSt12_Vector_baseINSt7__cxx1112basic_stringIcSt11char_traitsIcESaIcEEESaIS5_EEC2EmRKS6_
.LEHE16:
	movq	-40(%rbp), %rdx
	movq	-32(%rbp), %rcx
	movq	-24(%rbp), %rax
	movq	%rcx, %rsi
	movq	%rax, %rdi
.LEHB17:
	call	_ZNSt6vectorINSt7__cxx1112basic_stringIcSt11char_traitsIcESaIcEEESaIS5_EE18_M_fill_initializeEmRKS5_
.LEHE17:
	jmp	.L104
.L103:
	endbr64
	movq	%rax, %rbx
	movq	-24(%rbp), %rax
	movq	%rax, %rdi
	call	_ZNSt12_Vector_baseINSt7__cxx1112basic_stringIcSt11char_traitsIcESaIcEEESaIS5_EED2Ev
	movq	%rbx, %rax
	movq	%rax, %rdi
.LEHB18:
	call	_Unwind_Resume@PLT
.LEHE18:
.L104:
	movq	-8(%rbp), %rbx
	leave
	.cfi_def_cfa 7, 8
	ret
	.cfi_endproc
.LFE9714:
	.section	.gcc_except_table
.LLSDA9714:
	.byte	0xff
	.byte	0xff
	.byte	0x1
	.uleb128 .LLSDACSE9714-.LLSDACSB9714
.LLSDACSB9714:
	.uleb128 .LEHB16-.LFB9714
	.uleb128 .LEHE16-.LEHB16
	.uleb128 0
	.uleb128 0
	.uleb128 .LEHB17-.LFB9714
	.uleb128 .LEHE17-.LEHB17
	.uleb128 .L103-.LFB9714
	.uleb128 0
	.uleb128 .LEHB18-.LFB9714
	.uleb128 .LEHE18-.LEHB18
	.uleb128 0
	.uleb128 0
.LLSDACSE9714:
	.section	.text._ZNSt6vectorINSt7__cxx1112basic_stringIcSt11char_traitsIcESaIcEEESaIS5_EEC2EmRKS5_RKS6_,"axG",@progbits,_ZNSt6vectorINSt7__cxx1112basic_stringIcSt11char_traitsIcESaIcEEESaIS5_EEC5EmRKS5_RKS6_,comdat
	.size	_ZNSt6vectorINSt7__cxx1112basic_stringIcSt11char_traitsIcESaIcEEESaIS5_EEC2EmRKS5_RKS6_, .-_ZNSt6vectorINSt7__cxx1112basic_stringIcSt11char_traitsIcESaIcEEESaIS5_EEC2EmRKS5_RKS6_
	.weak	_ZNSt6vectorINSt7__cxx1112basic_stringIcSt11char_traitsIcESaIcEEESaIS5_EEC1EmRKS5_RKS6_
	.set	_ZNSt6vectorINSt7__cxx1112basic_stringIcSt11char_traitsIcESaIcEEESaIS5_EEC1EmRKS5_RKS6_,_ZNSt6vectorINSt7__cxx1112basic_stringIcSt11char_traitsIcESaIcEEESaIS5_EEC2EmRKS5_RKS6_
	.section	.text._ZNSt6vectorINSt7__cxx1112basic_stringIcSt11char_traitsIcESaIcEEESaIS5_EED2Ev,"axG",@progbits,_ZNSt6vectorINSt7__cxx1112basic_stringIcSt11char_traitsIcESaIcEEESaIS5_EED5Ev,comdat
	.align 2
	.weak	_ZNSt6vectorINSt7__cxx1112basic_stringIcSt11char_traitsIcESaIcEEESaIS5_EED2Ev
	.type	_ZNSt6vectorINSt7__cxx1112basic_stringIcSt11char_traitsIcESaIcEEESaIS5_EED2Ev, @function
_ZNSt6vectorINSt7__cxx1112basic_stringIcSt11char_traitsIcESaIcEEESaIS5_EED2Ev:
.LFB9717:
	.cfi_startproc
	.cfi_personality 0x9b,DW.ref.__gxx_personality_v0
	.cfi_lsda 0x1b,.LLSDA9717
	endbr64
	pushq	%rbp
	.cfi_def_cfa_offset 16
	.cfi_offset 6, -16
	movq	%rsp, %rbp
	.cfi_def_cfa_register 6
	subq	$16, %rsp
	movq	%rdi, -8(%rbp)
	movq	-8(%rbp), %rax
	movq	%rax, %rdi
	call	_ZNSt12_Vector_baseINSt7__cxx1112basic_stringIcSt11char_traitsIcESaIcEEESaIS5_EE19_M_get_Tp_allocatorEv
	movq	%rax, %rdx
	movq	-8(%rbp), %rax
	movq	8(%rax), %rcx
	movq	-8(%rbp), %rax
	movq	(%rax), %rax
	movq	%rcx, %rsi
	movq	%rax, %rdi
	call	_ZSt8_DestroyIPNSt7__cxx1112basic_stringIcSt11char_traitsIcESaIcEEES5_EvT_S7_RSaIT0_E
	movq	-8(%rbp), %rax
	movq	%rax, %rdi
	call	_ZNSt12_Vector_baseINSt7__cxx1112basic_stringIcSt11char_traitsIcESaIcEEESaIS5_EED2Ev
	nop
	leave
	.cfi_def_cfa 7, 8
	ret
	.cfi_endproc
.LFE9717:
	.section	.gcc_except_table
.LLSDA9717:
	.byte	0xff
	.byte	0xff
	.byte	0x1
	.uleb128 .LLSDACSE9717-.LLSDACSB9717
.LLSDACSB9717:
.LLSDACSE9717:
	.section	.text._ZNSt6vectorINSt7__cxx1112basic_stringIcSt11char_traitsIcESaIcEEESaIS5_EED2Ev,"axG",@progbits,_ZNSt6vectorINSt7__cxx1112basic_stringIcSt11char_traitsIcESaIcEEESaIS5_EED5Ev,comdat
	.size	_ZNSt6vectorINSt7__cxx1112basic_stringIcSt11char_traitsIcESaIcEEESaIS5_EED2Ev, .-_ZNSt6vectorINSt7__cxx1112basic_stringIcSt11char_traitsIcESaIcEEESaIS5_EED2Ev
	.weak	_ZNSt6vectorINSt7__cxx1112basic_stringIcSt11char_traitsIcESaIcEEESaIS5_EED1Ev
	.set	_ZNSt6vectorINSt7__cxx1112basic_stringIcSt11char_traitsIcESaIcEEESaIS5_EED1Ev,_ZNSt6vectorINSt7__cxx1112basic_stringIcSt11char_traitsIcESaIcEEESaIS5_EED2Ev
	.text
	.type	_ZSt4moveIRZ4mainEUlNSt7__cxx1112basic_stringIcSt11char_traitsIcESaIcEEEE_EONSt16remove_referenceIT_E4typeEOS9_, @function
_ZSt4moveIRZ4mainEUlNSt7__cxx1112basic_stringIcSt11char_traitsIcESaIcEEEE_EONSt16remove_referenceIT_E4typeEOS9_:
.LFB9720:
	.cfi_startproc
	pushq	%rbp
	.cfi_def_cfa_offset 16
	.cfi_offset 6, -16
	movq	%rsp, %rbp
	.cfi_def_cfa_register 6
	movq	%rdi, -8(%rbp)
	movq	-8(%rbp), %rax
	popq	%rbp
	.cfi_def_cfa 7, 8
	ret
	.cfi_endproc
.LFE9720:
	.size	_ZSt4moveIRZ4mainEUlNSt7__cxx1112basic_stringIcSt11char_traitsIcESaIcEEEE_EONSt16remove_referenceIT_E4typeEOS9_, .-_ZSt4moveIRZ4mainEUlNSt7__cxx1112basic_stringIcSt11char_traitsIcESaIcEEEE_EONSt16remove_referenceIT_E4typeEOS9_
	.align 2
	.type	_ZNK6ranges12bind_back_fnclINS_5views17transform_base_fnEZ4mainEUlNSt7__cxx1112basic_stringIcSt11char_traitsIcESaIcEEEE_JEEENS_6detail13bind_back_fn_INSt5decayIT_E4typeEJNSD_IT0_E4typeEDpNSD_IT1_E4typeEEEEOSE_OSH_DpOSK_, @function
_ZNK6ranges12bind_back_fnclINS_5views17transform_base_fnEZ4mainEUlNSt7__cxx1112basic_stringIcSt11char_traitsIcESaIcEEEE_JEEENS_6detail13bind_back_fn_INSt5decayIT_E4typeEJNSD_IT0_E4typeEDpNSD_IT1_E4typeEEEEOSE_OSH_DpOSK_:
.LFB9721:
	.cfi_startproc
	pushq	%rbp
	.cfi_def_cfa_offset 16
	.cfi_offset 6, -16
	movq	%rsp, %rbp
	.cfi_def_cfa_register 6
	movq	%rdi, -8(%rbp)
	movq	%rsi, -16(%rbp)
	movq	%rdx, -24(%rbp)
	popq	%rbp
	.cfi_def_cfa 7, 8
	ret
	.cfi_endproc
.LFE9721:
	.size	_ZNK6ranges12bind_back_fnclINS_5views17transform_base_fnEZ4mainEUlNSt7__cxx1112basic_stringIcSt11char_traitsIcESaIcEEEE_JEEENS_6detail13bind_back_fn_INSt5decayIT_E4typeEJNSD_IT0_E4typeEDpNSD_IT1_E4typeEEEEOSE_OSH_DpOSK_, .-_ZNK6ranges12bind_back_fnclINS_5views17transform_base_fnEZ4mainEUlNSt7__cxx1112basic_stringIcSt11char_traitsIcESaIcEEEE_JEEENS_6detail13bind_back_fn_INSt5decayIT_E4typeEJNSD_IT0_E4typeEDpNSD_IT1_E4typeEEEEOSE_OSH_DpOSK_
	.align 2
	.type	_ZNK6ranges20make_view_closure_fnclINS_6detail13bind_back_fn_INS_5views17transform_base_fnEJZ4mainEUlNSt7__cxx1112basic_stringIcSt11char_traitsIcESaIcEEEE_EEEEENS4_12view_closureIT_EESF_, @function
_ZNK6ranges20make_view_closure_fnclINS_6detail13bind_back_fn_INS_5views17transform_base_fnEJZ4mainEUlNSt7__cxx1112basic_stringIcSt11char_traitsIcESaIcEEEE_EEEEENS4_12view_closureIT_EESF_:
.LFB9722:
	.cfi_startproc
	pushq	%rbp
	.cfi_def_cfa_offset 16
	.cfi_offset 6, -16
	movq	%rsp, %rbp
	.cfi_def_cfa_register 6
	pushq	%rbx
	subq	$40, %rsp
	.cfi_offset 3, -24
	movq	%rdi, -40(%rbp)
	movq	%fs:40, %rax
	movq	%rax, -24(%rbp)
	xorl	%eax, %eax
	leaq	-26(%rbp), %rax
	movq	%rax, %rdi
	call	_ZN6ranges5views12view_closureINS_6detail13bind_back_fn_INS0_17transform_base_fnEJZ4mainEUlNSt7__cxx1112basic_stringIcSt11char_traitsIcESaIcEEEE_EEEEC1ESC_
	movq	-24(%rbp), %rax
	subq	%fs:40, %rax
	je	.L112
	call	__stack_chk_fail@PLT
.L112:
	movl	%ebx, %eax
	movq	-8(%rbp), %rbx
	leave
	.cfi_def_cfa 7, 8
	ret
	.cfi_endproc
.LFE9722:
	.size	_ZNK6ranges20make_view_closure_fnclINS_6detail13bind_back_fn_INS_5views17transform_base_fnEJZ4mainEUlNSt7__cxx1112basic_stringIcSt11char_traitsIcESaIcEEEE_EEEEENS4_12view_closureIT_EESF_, .-_ZNK6ranges20make_view_closure_fnclINS_6detail13bind_back_fn_INS_5views17transform_base_fnEJZ4mainEUlNSt7__cxx1112basic_stringIcSt11char_traitsIcESaIcEEEE_EEEEENS4_12view_closureIT_EESF_
	.section	.text._ZN6ranges6detail8ignore_tC2ISt17integral_constantIbLb1EEEEOT_,"axG",@progbits,_ZN6ranges6detail8ignore_tC5ISt17integral_constantIbLb1EEEEOT_,comdat
	.align 2
	.weak	_ZN6ranges6detail8ignore_tC2ISt17integral_constantIbLb1EEEEOT_
	.type	_ZN6ranges6detail8ignore_tC2ISt17integral_constantIbLb1EEEEOT_, @function
_ZN6ranges6detail8ignore_tC2ISt17integral_constantIbLb1EEEEOT_:
.LFB9724:
	.cfi_startproc
	endbr64
	pushq	%rbp
	.cfi_def_cfa_offset 16
	.cfi_offset 6, -16
	movq	%rsp, %rbp
	.cfi_def_cfa_register 6
	movq	%rdi, -8(%rbp)
	movq	%rsi, -16(%rbp)
	nop
	popq	%rbp
	.cfi_def_cfa 7, 8
	ret
	.cfi_endproc
.LFE9724:
	.size	_ZN6ranges6detail8ignore_tC2ISt17integral_constantIbLb1EEEEOT_, .-_ZN6ranges6detail8ignore_tC2ISt17integral_constantIbLb1EEEEOT_
	.weak	_ZN6ranges6detail8ignore_tC1ISt17integral_constantIbLb1EEEEOT_
	.set	_ZN6ranges6detail8ignore_tC1ISt17integral_constantIbLb1EEEEOT_,_ZN6ranges6detail8ignore_tC2ISt17integral_constantIbLb1EEEEOT_
	.section	.text._ZNK6ranges5views6ref_fnclISt6vectorINSt7__cxx1112basic_stringIcSt11char_traitsIcESaIcEEESaIS9_EELb1ELi0EEENS_8ref_viewIT_EERSD_,"axG",@progbits,_ZNK6ranges5views6ref_fnclISt6vectorINSt7__cxx1112basic_stringIcSt11char_traitsIcESaIcEEESaIS9_EELb1ELi0EEENS_8ref_viewIT_EERSD_,comdat
	.align 2
	.weak	_ZNK6ranges5views6ref_fnclISt6vectorINSt7__cxx1112basic_stringIcSt11char_traitsIcESaIcEEESaIS9_EELb1ELi0EEENS_8ref_viewIT_EERSD_
	.type	_ZNK6ranges5views6ref_fnclISt6vectorINSt7__cxx1112basic_stringIcSt11char_traitsIcESaIcEEESaIS9_EELb1ELi0EEENS_8ref_viewIT_EERSD_, @function
_ZNK6ranges5views6ref_fnclISt6vectorINSt7__cxx1112basic_stringIcSt11char_traitsIcESaIcEEESaIS9_EELb1ELi0EEENS_8ref_viewIT_EERSD_:
.LFB9726:
	.cfi_startproc
	endbr64
	pushq	%rbp
	.cfi_def_cfa_offset 16
	.cfi_offset 6, -16
	movq	%rsp, %rbp
	.cfi_def_cfa_register 6
	subq	$32, %rsp
	movq	%rdi, -24(%rbp)
	movq	%rsi, -32(%rbp)
	movq	%fs:40, %rax
	movq	%rax, -8(%rbp)
	xorl	%eax, %eax
	movq	-32(%rbp), %rdx
	leaq	-16(%rbp), %rax
	movq	%rdx, %rsi
	movq	%rax, %rdi
	call	_ZN6ranges8ref_viewISt6vectorINSt7__cxx1112basic_stringIcSt11char_traitsIcESaIcEEESaIS7_EEEC1ERS9_
	movq	-16(%rbp), %rax
	movq	-8(%rbp), %rdx
	subq	%fs:40, %rdx
	je	.L116
	call	__stack_chk_fail@PLT
.L116:
	leave
	.cfi_def_cfa 7, 8
	ret
	.cfi_endproc
.LFE9726:
	.size	_ZNK6ranges5views6ref_fnclISt6vectorINSt7__cxx1112basic_stringIcSt11char_traitsIcESaIcEEESaIS9_EELb1ELi0EEENS_8ref_viewIT_EERSD_, .-_ZNK6ranges5views6ref_fnclISt6vectorINSt7__cxx1112basic_stringIcSt11char_traitsIcESaIcEEESaIS9_EELb1ELi0EEENS_8ref_viewIT_EERSD_
	.section	.text._ZN6ranges6detail8ignore_tC2ISt19is_lvalue_referenceINS_8ref_viewISt6vectorINSt7__cxx1112basic_stringIcSt11char_traitsIcESaIcEEESaISB_EEEEEEEOT_,"axG",@progbits,_ZN6ranges6detail8ignore_tC5ISt19is_lvalue_referenceINS_8ref_viewISt6vectorINSt7__cxx1112basic_stringIcSt11char_traitsIcESaIcEEESaISB_EEEEEEEOT_,comdat
	.align 2
	.weak	_ZN6ranges6detail8ignore_tC2ISt19is_lvalue_referenceINS_8ref_viewISt6vectorINSt7__cxx1112basic_stringIcSt11char_traitsIcESaIcEEESaISB_EEEEEEEOT_
	.type	_ZN6ranges6detail8ignore_tC2ISt19is_lvalue_referenceINS_8ref_viewISt6vectorINSt7__cxx1112basic_stringIcSt11char_traitsIcESaIcEEESaISB_EEEEEEEOT_, @function
_ZN6ranges6detail8ignore_tC2ISt19is_lvalue_referenceINS_8ref_viewISt6vectorINSt7__cxx1112basic_stringIcSt11char_traitsIcESaIcEEESaISB_EEEEEEEOT_:
.LFB9728:
	.cfi_startproc
	endbr64
	pushq	%rbp
	.cfi_def_cfa_offset 16
	.cfi_offset 6, -16
	movq	%rsp, %rbp
	.cfi_def_cfa_register 6
	movq	%rdi, -8(%rbp)
	movq	%rsi, -16(%rbp)
	nop
	popq	%rbp
	.cfi_def_cfa 7, 8
	ret
	.cfi_endproc
.LFE9728:
	.size	_ZN6ranges6detail8ignore_tC2ISt19is_lvalue_referenceINS_8ref_viewISt6vectorINSt7__cxx1112basic_stringIcSt11char_traitsIcESaIcEEESaISB_EEEEEEEOT_, .-_ZN6ranges6detail8ignore_tC2ISt19is_lvalue_referenceINS_8ref_viewISt6vectorINSt7__cxx1112basic_stringIcSt11char_traitsIcESaIcEEESaISB_EEEEEEEOT_
	.weak	_ZN6ranges6detail8ignore_tC1ISt19is_lvalue_referenceINS_8ref_viewISt6vectorINSt7__cxx1112basic_stringIcSt11char_traitsIcESaIcEEESaISB_EEEEEEEOT_
	.set	_ZN6ranges6detail8ignore_tC1ISt19is_lvalue_referenceINS_8ref_viewISt6vectorINSt7__cxx1112basic_stringIcSt11char_traitsIcESaIcEEESaISB_EEEEEEEOT_,_ZN6ranges6detail8ignore_tC2ISt19is_lvalue_referenceINS_8ref_viewISt6vectorINSt7__cxx1112basic_stringIcSt11char_traitsIcESaIcEEESaISB_EEEEEEEOT_
	.text
	.align 2
	.type	_ZNO6ranges6detail13bind_back_fn_INS_5views17transform_base_fnEJZ4mainEUlNSt7__cxx1112basic_stringIcSt11char_traitsIcESaIcEEEE_EEclIJRSt6vectorIS9_SaIS9_EEEEEDTclL_ZNS_6invokeEEcl7declvalIS3_EEspcl7declvalIT_EEcl7declvalISA_EEEEDpOSH_, @function
_ZNO6ranges6detail13bind_back_fn_INS_5views17transform_base_fnEJZ4mainEUlNSt7__cxx1112basic_stringIcSt11char_traitsIcESaIcEEEE_EEclIJRSt6vectorIS9_SaIS9_EEEEEDTclL_ZNS_6invokeEEcl7declvalIS3_EEspcl7declvalIT_EEcl7declvalISA_EEEEDpOSH_:
.LFB9731:
	.cfi_startproc
	pushq	%rbp
	.cfi_def_cfa_offset 16
	.cfi_offset 6, -16
	movq	%rsp, %rbp
	.cfi_def_cfa_register 6
	subq	$48, %rsp
	movq	%rdi, -24(%rbp)
	movq	%rsi, -32(%rbp)
	movq	%rdx, -40(%rbp)
	movq	%fs:40, %rax
	movq	%rax, -8(%rbp)
	xorl	%eax, %eax
	movq	-32(%rbp), %rax
	leaq	1(%rax), %rsi
	movq	-32(%rbp), %rdx
	movq	-24(%rbp), %rax
	movq	-40(%rbp), %rcx
	movq	%rsi, %r8
	leaq	_ZN6ranges6invokeE(%rip), %rsi
	movq	%rax, %rdi
	call	_ZNK6ranges9invoke_fnclINS_5views17transform_base_fnEJRSt6vectorINSt7__cxx1112basic_stringIcSt11char_traitsIcESaIcEEESaISA_EEZ4mainEUlSA_E_EEEDTclcvOT_fp_spcvOT0_fp0_EESG_DpSI_
	movq	-8(%rbp), %rax
	subq	%fs:40, %rax
	je	.L120
	call	__stack_chk_fail@PLT
.L120:
	movq	-24(%rbp), %rax
	leave
	.cfi_def_cfa 7, 8
	ret
	.cfi_endproc
.LFE9731:
	.size	_ZNO6ranges6detail13bind_back_fn_INS_5views17transform_base_fnEJZ4mainEUlNSt7__cxx1112basic_stringIcSt11char_traitsIcESaIcEEEE_EEclIJRSt6vectorIS9_SaIS9_EEEEEDTclL_ZNS_6invokeEEcl7declvalIS3_EEspcl7declvalIT_EEcl7declvalISA_EEEEDpOSH_, .-_ZNO6ranges6detail13bind_back_fn_INS_5views17transform_base_fnEJZ4mainEUlNSt7__cxx1112basic_stringIcSt11char_traitsIcESaIcEEEE_EEclIJRSt6vectorIS9_SaIS9_EEEEEDTclL_ZNS_6invokeEEcl7declvalIS3_EEspcl7declvalIT_EEcl7declvalISA_EEEEDpOSH_
	.align 2
	.type	_ZN6ranges15semiregular_boxINS_10indirectedIZ4mainEUlNSt7__cxx1112basic_stringIcSt11char_traitsIcESaIcEEEE_EEED2Ev, @function
_ZN6ranges15semiregular_boxINS_10indirectedIZ4mainEUlNSt7__cxx1112basic_stringIcSt11char_traitsIcESaIcEEEE_EEED2Ev:
.LFB9733:
	.cfi_startproc
	pushq	%rbp
	.cfi_def_cfa_offset 16
	.cfi_offset 6, -16
	movq	%rsp, %rbp
	.cfi_def_cfa_register 6
	subq	$16, %rsp
	movq	%rdi, -8(%rbp)
	movq	-8(%rbp), %rax
	movq	%rax, %rdi
	call	_ZN6ranges15semiregular_boxINS_10indirectedIZ4mainEUlNSt7__cxx1112basic_stringIcSt11char_traitsIcESaIcEEEE_EEE5resetEv
	nop
	leave
	.cfi_def_cfa 7, 8
	ret
	.cfi_endproc
.LFE9733:
	.size	_ZN6ranges15semiregular_boxINS_10indirectedIZ4mainEUlNSt7__cxx1112basic_stringIcSt11char_traitsIcESaIcEEEE_EEED2Ev, .-_ZN6ranges15semiregular_boxINS_10indirectedIZ4mainEUlNSt7__cxx1112basic_stringIcSt11char_traitsIcESaIcEEEE_EEED2Ev
	.set	_ZN6ranges15semiregular_boxINS_10indirectedIZ4mainEUlNSt7__cxx1112basic_stringIcSt11char_traitsIcESaIcEEEE_EEED1Ev,_ZN6ranges15semiregular_boxINS_10indirectedIZ4mainEUlNSt7__cxx1112basic_stringIcSt11char_traitsIcESaIcEEEE_EEED2Ev
	.align 2
	.type	_ZNK6ranges9invoke_fnclIRNS_10indirectedIZ4mainEUlNSt7__cxx1112basic_stringIcSt11char_traitsIcESaIcEEEE_EEJRN9__gnu_cxx17__normal_iteratorIPS8_St6vectorIS8_SaIS8_EEEEEEEDTclcvOT_fp_spcvOT0_fp0_EESL_DpSN_, @function
_ZNK6ranges9invoke_fnclIRNS_10indirectedIZ4mainEUlNSt7__cxx1112basic_stringIcSt11char_traitsIcESaIcEEEE_EEJRN9__gnu_cxx17__normal_iteratorIPS8_St6vectorIS8_SaIS8_EEEEEEEDTclcvOT_fp_spcvOT0_fp0_EESL_DpSN_:
.LFB9737:
	.cfi_startproc
	pushq	%rbp
	.cfi_def_cfa_offset 16
	.cfi_offset 6, -16
	movq	%rsp, %rbp
	.cfi_def_cfa_register 6
	subq	$48, %rsp
	movq	%rdi, -24(%rbp)
	movq	%rsi, -32(%rbp)
	movq	%rdx, -40(%rbp)
	movq	%rcx, -48(%rbp)
	movq	%fs:40, %rax
	movq	%rax, -8(%rbp)
	xorl	%eax, %eax
	movq	-24(%rbp), %rax
	movq	-48(%rbp), %rdx
	movq	-40(%rbp), %rcx
	movq	(%rdx), %rdx
	movq	%rcx, %rsi
	movq	%rax, %rdi
	call	_ZN6ranges10indirectedIZ4mainEUlNSt7__cxx1112basic_stringIcSt11char_traitsIcESaIcEEEE_EclIJN9__gnu_cxx17__normal_iteratorIPS6_St6vectorIS6_SaIS6_EEEEEEEDTclL_ZNS_6invokeEEdtdefpT3fn_spdefp_EEDpT_
	movq	-8(%rbp), %rax
	subq	%fs:40, %rax
	je	.L124
	call	__stack_chk_fail@PLT
.L124:
	movq	-24(%rbp), %rax
	leave
	.cfi_def_cfa 7, 8
	ret
	.cfi_endproc
.LFE9737:
